---
triple:          'x86_64-apple-darwin'
binary-path:     game
relocations:
  - { offsetInCU: 0x3F, offset: 0x3F, size: 0x8, addend: 0x0, symName: _windowWidth, symObjAddr: 0x1A618, symBinAddr: 0x10001D000, symSize: 0x0 }
  - { offsetInCU: 0x5B, offset: 0x5B, size: 0x8, addend: 0x0, symName: _boardWH, symObjAddr: 0x1A61C, symBinAddr: 0x10001D004, symSize: 0x0 }
  - { offsetInCU: 0x70, offset: 0x70, size: 0x8, addend: 0x0, symName: _windowCenter, symObjAddr: 0x89A10, symBinAddr: 0x10001D008, symSize: 0x0 }
  - { offsetInCU: 0x85, offset: 0x85, size: 0x8, addend: 0x0, symName: _currentTime, symObjAddr: 0x89A18, symBinAddr: 0x10001D010, symSize: 0x0 }
  - { offsetInCU: 0xA1, offset: 0xA1, size: 0x8, addend: 0x0, symName: _lastUpdateTime, symObjAddr: 0x89A20, symBinAddr: 0x10001D018, symSize: 0x0 }
  - { offsetInCU: 0x505C, offset: 0x505C, size: 0x8, addend: 0x0, symName: __ZNSt3__16chronomiB8ue170006IxNS_5ratioILl1ELl1000000000EEExS3_EENS_11common_typeIJNS0_8durationIT_T0_EENS5_IT1_T2_EEEE4typeERKS8_RKSB_, symObjAddr: 0xCCB0, symBinAddr: 0x10000D970, symSize: 0x70 }
  - { offsetInCU: 0x5605, offset: 0x5605, size: 0x8, addend: 0x0, symName: __ZNSt3__16chronomiB8ue170006INS0_12steady_clockENS0_8durationIxNS_5ratioILl1ELl1000000000EEEEES6_EENS_11common_typeIJT0_T1_EE4typeERKNS0_10time_pointIT_S8_EERKNSC_ISD_S9_EE, symObjAddr: 0xCC10, symBinAddr: 0x10000D8D0, symSize: 0x50 }
  - { offsetInCU: 0x565D, offset: 0x565D, size: 0x8, addend: 0x0, symName: __ZNSt3__16chrono13duration_castB8ue170006INS0_8durationIdNS_5ratioILl1ELl1EEEEExNS3_ILl1ELl1000000000EEEEENS_9enable_ifIXsr13__is_durationIT_EE5valueES8_E4typeERKNS2_IT0_T1_EE, symObjAddr: 0xCE00, symBinAddr: 0x10000DAC0, symSize: 0x30 }
  - { offsetInCU: 0x79F7, offset: 0x79F7, size: 0x8, addend: 0x0, symName: __ZNSt3__124__put_character_sequenceB8ue170006IcNS_11char_traitsIcEEEERNS_13basic_ostreamIT_T0_EES7_PKS4_m, symObjAddr: 0x12720, symBinAddr: 0x1000133E0, symSize: 0x1F0 }
  - { offsetInCU: 0xACCA, offset: 0xACCA, size: 0x8, addend: 0x0, symName: __ZNSt3__117__floyd_sift_downB8ue170006INS_17_ClassicAlgPolicyER7CompareNS_11__wrap_iterIP7ElementEEEET1_S8_OT0_NS_15iterator_traitsIS8_E15difference_typeE, symObjAddr: 0x16890, symBinAddr: 0x100017550, symSize: 0x130 }
  - { offsetInCU: 0xC831, offset: 0xC831, size: 0x8, addend: 0x0, symName: __ZNSt3__1lsB8ue170006IcNS_11char_traitsIcEEEERNS_13basic_ostreamIT_T0_EES7_RKNS_8__iom_t6E, symObjAddr: 0x580, symBinAddr: 0x100001240, symSize: 0x40 }
  - { offsetInCU: 0xC880, offset: 0xC880, size: 0x8, addend: 0x0, symName: __ZNSt3__14setwB8ue170006Ei, symObjAddr: 0x5C0, symBinAddr: 0x100001280, symSize: 0x20 }
  - { offsetInCU: 0xC8AE, offset: 0xC8AE, size: 0x8, addend: 0x0, symName: __ZNSt3__14endlB8ue170006IcNS_11char_traitsIcEEEERNS_13basic_ostreamIT_T0_EES7_, symObjAddr: 0x640, symBinAddr: 0x100001300, symSize: 0x50 }
  - { offsetInCU: 0xC8EE, offset: 0xC8EE, size: 0x8, addend: 0x0, symName: __ZNSt3__1lsB8ue170006INS_11char_traitsIcEEEERNS_13basic_ostreamIcT_EES6_PKc, symObjAddr: 0x690, symBinAddr: 0x100001350, symSize: 0x40 }
  - { offsetInCU: 0xCB2F, offset: 0xCB2F, size: 0x8, addend: 0x0, symName: __ZNSt3__1eqB8ue170006IcNS_11char_traitsIcEENS_9allocatorIcEEEEbRKNS_12basic_stringIT_T0_T1_EEPKS6_, symObjAddr: 0xBC0, symBinAddr: 0x100001880, symSize: 0x90 }
  - { offsetInCU: 0xCF8B, offset: 0xCF8B, size: 0x8, addend: 0x0, symName: __ZNSt3__1lsB8ue170006IcNS_11char_traitsIcEENS_9allocatorIcEEEERNS_13basic_ostreamIT_T0_EES9_RKNS_12basic_stringIS6_S7_T1_EE, symObjAddr: 0xBC80, symBinAddr: 0x10000C940, symSize: 0x50 }
  - { offsetInCU: 0xCFE3, offset: 0xCFE3, size: 0x8, addend: 0x0, symName: __ZNSt3__122__make_exception_guardB8ue170006INS_6vectorI4MoveNS_9allocatorIS2_EEE16__destroy_vectorEEENS_28__exception_guard_exceptionsIT_EES8_, symObjAddr: 0xD590, symBinAddr: 0x10000E250, symSize: 0x40 }
  - { offsetInCU: 0xD018, offset: 0xD018, size: 0x8, addend: 0x0, symName: __ZNSt3__119__allocate_at_leastB8ue170006INS_9allocatorI4MoveEEEENS_19__allocation_resultINS_16allocator_traitsIT_E7pointerEEERS6_m, symObjAddr: 0xD860, symBinAddr: 0x10000E520, symSize: 0x40 }
  - { offsetInCU: 0xD05B, offset: 0xD05B, size: 0x8, addend: 0x0, symName: __ZNSt3__13minB8ue170006ImEERKT_S3_S3_, symObjAddr: 0xD980, symBinAddr: 0x10000E640, symSize: 0x30 }
  - { offsetInCU: 0xD29F, offset: 0xD29F, size: 0x8, addend: 0x0, symName: __ZNSt3__13minB8ue170006ImNS_6__lessIvvEEEERKT_S5_S5_T0_, symObjAddr: 0xD9F0, symBinAddr: 0x10000E6B0, symSize: 0x50 }
  - { offsetInCU: 0xD33E, offset: 0xD33E, size: 0x8, addend: 0x0, symName: __ZNSt3__120__throw_length_errorB8ue170006EPKc, symObjAddr: 0xDAA0, symBinAddr: 0x10000E760, symSize: 0x70 }
  - { offsetInCU: 0xD368, offset: 0xD368, size: 0x8, addend: 0x0, symName: __ZNSt3__117__libcpp_allocateB8ue170006Emm, symObjAddr: 0xDC10, symBinAddr: 0x10000E8D0, symSize: 0x20 }
  - { offsetInCU: 0xD3A5, offset: 0xD3A5, size: 0x8, addend: 0x0, symName: __ZNSt3__121__libcpp_operator_newB8ue170006IJmEEEPvDpT_, symObjAddr: 0xDC30, symBinAddr: 0x10000E8F0, symSize: 0x20 }
  - { offsetInCU: 0xD3DE, offset: 0xD3DE, size: 0x8, addend: 0x0, symName: __ZNSt3__112__to_addressB8ue170006I4MoveEEPT_S3_, symObjAddr: 0xDD30, symBinAddr: 0x10000E9F0, symSize: 0x10 }
  - { offsetInCU: 0xD413, offset: 0xD413, size: 0x8, addend: 0x0, symName: __ZNSt3__130__uninitialized_allocator_copyB8ue170006INS_9allocatorI4MoveEEPS2_S4_S4_EET2_RT_T0_T1_S5_, symObjAddr: 0xDDC0, symBinAddr: 0x10000EA80, symSize: 0x80 }
  - { offsetInCU: 0xD4B0, offset: 0xD4B0, size: 0x8, addend: 0x0, symName: __ZNSt3__114__unwrap_rangeB8ue170006IP4MoveS2_EENS_4pairIT0_S4_EET_S6_, symObjAddr: 0xDEA0, symBinAddr: 0x10000EB60, symSize: 0x50 }
  - { offsetInCU: 0xD4FC, offset: 0xD4FC, size: 0x8, addend: 0x0, symName: __ZNSt3__135__uninitialized_allocator_copy_implB8ue170006INS_9allocatorI4MoveEEPS2_S4_S4_EET2_RT_T0_T1_S5_, symObjAddr: 0xDEF0, symBinAddr: 0x10000EBB0, symSize: 0x100 }
  - { offsetInCU: 0xD59A, offset: 0xD59A, size: 0x8, addend: 0x0, symName: __ZNSt3__113__unwrap_iterB8ue170006IP4MoveNS_18__unwrap_iter_implIS2_Lb1EEELi0EEEDTclsrT0_8__unwrapclsr3stdE7declvalIT_EEEES6_, symObjAddr: 0xDFF0, symBinAddr: 0x10000ECB0, symSize: 0x20 }
  - { offsetInCU: 0xD5DE, offset: 0xD5DE, size: 0x8, addend: 0x0, symName: __ZNSt3__113__rewrap_iterB8ue170006IP4MoveS2_NS_18__unwrap_iter_implIS2_Lb1EEEEET_S5_T0_, symObjAddr: 0xE010, symBinAddr: 0x10000ECD0, symSize: 0x40 }
  - { offsetInCU: 0xD633, offset: 0xD633, size: 0x8, addend: 0x0, symName: __ZNSt3__19make_pairB8ue170006IP4MoveS2_EENS_4pairINS_18__unwrap_ref_decayIT_E4typeENS4_IT0_E4typeEEEOS5_OS8_, symObjAddr: 0xE050, symBinAddr: 0x10000ED10, symSize: 0x30 }
  - { offsetInCU: 0xD756, offset: 0xD756, size: 0x8, addend: 0x0, symName: __ZNSt3__122__make_exception_guardB8ue170006INS_29_AllocatorDestroyRangeReverseINS_9allocatorI4MoveEEPS3_EEEENS_28__exception_guard_exceptionsIT_EES8_, symObjAddr: 0xE0E0, symBinAddr: 0x10000EDA0, symSize: 0x60 }
  - { offsetInCU: 0xD78B, offset: 0xD78B, size: 0x8, addend: 0x0, symName: __ZNSt3__119__allocator_destroyB8ue170006INS_9allocatorI4MoveEENS_16reverse_iteratorIPS2_EES6_EEvRT_T0_T1_, symObjAddr: 0xE370, symBinAddr: 0x10000F030, symSize: 0x70 }
  - { offsetInCU: 0xD7EE, offset: 0xD7EE, size: 0x8, addend: 0x0, symName: __ZNSt3__1neB8ue170006IP4MoveS2_EEbRKNS_16reverse_iteratorIT_EERKNS3_IT0_EE, symObjAddr: 0xE410, symBinAddr: 0x10000F0D0, symSize: 0x40 }
  - { offsetInCU: 0xD83A, offset: 0xD83A, size: 0x8, addend: 0x0, symName: __ZNSt3__112__to_addressB8ue170006INS_16reverse_iteratorIP4MoveEEvEEu7__decayIDTclsr19__to_address_helperIT_EE6__callclsr3stdE7declvalIRKS5_EEEEES7_, symObjAddr: 0xE480, symBinAddr: 0x10000F140, symSize: 0x20 }
  - { offsetInCU: 0xD8EC, offset: 0xD8EC, size: 0x8, addend: 0x0, symName: __ZNSt3__119__libcpp_deallocateB8ue170006EPvmm, symObjAddr: 0xE8F0, symBinAddr: 0x10000F5B0, symSize: 0x30 }
  - { offsetInCU: 0xD934, offset: 0xD934, size: 0x8, addend: 0x0, symName: __ZNSt3__127__do_deallocate_handle_sizeB8ue170006IJEEEvPvmDpT_, symObjAddr: 0xE920, symBinAddr: 0x10000F5E0, symSize: 0x20 }
  - { offsetInCU: 0xD972, offset: 0xD972, size: 0x8, addend: 0x0, symName: __ZNSt3__124__libcpp_operator_deleteB8ue170006IJPvEEEvDpT_, symObjAddr: 0xE940, symBinAddr: 0x10000F600, symSize: 0x20 }
  - { offsetInCU: 0xD9A7, offset: 0xD9A7, size: 0x8, addend: 0x0, symName: __ZNSt3__1plB8ue170006IcNS_11char_traitsIcEENS_9allocatorIcEEEENS_12basic_stringIT_T0_T1_EES6_OS9_, symObjAddr: 0xEDD0, symBinAddr: 0x10000FA90, symSize: 0x80 }
  - { offsetInCU: 0xDA32, offset: 0xDA32, size: 0x8, addend: 0x0, symName: __ZNSt3__112__to_addressB8ue170006IP7CommandEEPT_S4_, symObjAddr: 0x10C80, symBinAddr: 0x100011940, symSize: 0x10 }
  - { offsetInCU: 0xDA67, offset: 0xDA67, size: 0x8, addend: 0x0, symName: __ZNSt3__1neB8ue170006ERKNS_16__deque_iteratorIP7CommandPS2_RS2_PS3_lLl512EEES8_, symObjAddr: 0x115B0, symBinAddr: 0x100012270, symSize: 0x30 }
  - { offsetInCU: 0xDAA4, offset: 0xDAA4, size: 0x8, addend: 0x0, symName: __ZNSt3__1eqB8ue170006ERKNS_16__deque_iteratorIP7CommandPS2_RS2_PS3_lLl512EEES8_, symObjAddr: 0x11780, symBinAddr: 0x100012440, symSize: 0x30 }
  - { offsetInCU: 0xDAE1, offset: 0xDAE1, size: 0x8, addend: 0x0, symName: __ZNSt3__112__to_addressB8ue170006IPP7CommandEEPT_S5_, symObjAddr: 0x11B90, symBinAddr: 0x100012850, symSize: 0x10 }
  - { offsetInCU: 0xDB16, offset: 0xDB16, size: 0x8, addend: 0x0, symName: __ZNSt3__118__constexpr_strlenB8ue170006EPKc, symObjAddr: 0x11DD0, symBinAddr: 0x100012A90, symSize: 0x20 }
  - { offsetInCU: 0xDB66, offset: 0xDB66, size: 0x8, addend: 0x0, symName: __ZNSt3__113__countl_zeroB8ue170006IjEEiT_, symObjAddr: 0x121F0, symBinAddr: 0x100012EB0, symSize: 0x40 }
  - { offsetInCU: 0xDB9B, offset: 0xDB9B, size: 0x8, addend: 0x0, symName: __ZNSt3__112__libcpp_clzB8ue170006Ej, symObjAddr: 0x125E0, symBinAddr: 0x1000132A0, symSize: 0x20 }
  - { offsetInCU: 0xDBC7, offset: 0xDBC7, size: 0x8, addend: 0x0, symName: __ZNSt3__19use_facetB8ue170006INS_5ctypeIcEEEERKT_RKNS_6localeE, symObjAddr: 0x126C0, symBinAddr: 0x100013380, symSize: 0x30 }
  - { offsetInCU: 0xE094, offset: 0xE094, size: 0x8, addend: 0x0, symName: __ZNSt3__116__pad_and_outputB8ue170006IcNS_11char_traitsIcEEEENS_19ostreambuf_iteratorIT_T0_EES6_PKS4_S8_S8_RNS_8ios_baseES4_, symObjAddr: 0x12930, symBinAddr: 0x1000135F0, symSize: 0x220 }
  - { offsetInCU: 0xE164, offset: 0xE164, size: 0x8, addend: 0x0, symName: __ZNSt3__112__to_addressB8ue170006IKcEEPT_S3_, symObjAddr: 0x12D60, symBinAddr: 0x100013A20, symSize: 0x10 }
  - { offsetInCU: 0xE1CC, offset: 0xE1CC, size: 0x8, addend: 0x0, symName: __ZNSt3__112__to_addressB8ue170006I7ElementEEPT_S3_, symObjAddr: 0x13440, symBinAddr: 0x100014100, symSize: 0x10 }
  - { offsetInCU: 0xE201, offset: 0xE201, size: 0x8, addend: 0x0, symName: __ZNSt3__19push_heapB8ue170006INS_11__wrap_iterIP7ElementEE7CompareEEvT_S6_T0_, symObjAddr: 0x13660, symBinAddr: 0x100014320, symSize: 0x40 }
  - { offsetInCU: 0xE257, offset: 0xE257, size: 0x8, addend: 0x0, symName: __ZNSt3__13maxB8ue170006ImEERKT_S3_S3_, symObjAddr: 0x13CB0, symBinAddr: 0x100014970, symSize: 0x30 }
  - { offsetInCU: 0xE29A, offset: 0xE29A, size: 0x8, addend: 0x0, symName: __ZNSt3__13maxB8ue170006ImNS_6__lessIvvEEEERKT_S5_S5_T0_, symObjAddr: 0x13D70, symBinAddr: 0x100014A30, symSize: 0x50 }
  - { offsetInCU: 0xE2F4, offset: 0xE2F4, size: 0x8, addend: 0x0, symName: __ZNSt3__119__allocate_at_leastB8ue170006INS_9allocatorI7ElementEEEENS_19__allocation_resultINS_16allocator_traitsIT_E7pointerEEERS6_m, symObjAddr: 0x13EB0, symBinAddr: 0x100014B70, symSize: 0x40 }
  - { offsetInCU: 0xE337, offset: 0xE337, size: 0x8, addend: 0x0, symName: __ZNSt3__142__uninitialized_allocator_move_if_noexceptB8ue170006INS_9allocatorI7ElementEENS_16reverse_iteratorIPS2_EES6_S6_EET2_RT_T0_T1_S7_, symObjAddr: 0x14060, symBinAddr: 0x100014D20, symSize: 0x180 }
  - { offsetInCU: 0xE3D6, offset: 0xE3D6, size: 0x8, addend: 0x0, symName: __ZNSt3__14swapB8ue170006IP7ElementEENS_9enable_ifIXaasr21is_move_constructibleIT_EE5valuesr18is_move_assignableIS4_EE5valueEvE4typeERS4_S7_, symObjAddr: 0x14230, symBinAddr: 0x100014EF0, symSize: 0x40 }
  - { offsetInCU: 0xE427, offset: 0xE427, size: 0x8, addend: 0x0, symName: __ZNSt3__122__make_exception_guardB8ue170006INS_29_AllocatorDestroyRangeReverseINS_9allocatorI7ElementEENS_16reverse_iteratorIPS3_EEEEEENS_28__exception_guard_exceptionsIT_EESA_, symObjAddr: 0x14310, symBinAddr: 0x100014FD0, symSize: 0x60 }
  - { offsetInCU: 0xE45C, offset: 0xE45C, size: 0x8, addend: 0x0, symName: __ZNSt3__1neB8ue170006IP7ElementS2_EEbRKNS_16reverse_iteratorIT_EERKNS3_IT0_EE, symObjAddr: 0x143B0, symBinAddr: 0x100015070, symSize: 0x40 }
  - { offsetInCU: 0xE4A8, offset: 0xE4A8, size: 0x8, addend: 0x0, symName: __ZNSt3__112__to_addressB8ue170006INS_16reverse_iteratorIP7ElementEEvEEu7__decayIDTclsr19__to_address_helperIT_EE6__callclsr3stdE7declvalIRKS5_EEEEES7_, symObjAddr: 0x143F0, symBinAddr: 0x1000150B0, symSize: 0x20 }
  - { offsetInCU: 0xE507, offset: 0xE507, size: 0x8, addend: 0x0, symName: __ZNSt3__119__allocator_destroyB8ue170006INS_9allocatorI7ElementEENS_16reverse_iteratorINS4_IPS2_EEEES7_EEvRT_T0_T1_, symObjAddr: 0x146E0, symBinAddr: 0x1000153A0, symSize: 0x70 }
  - { offsetInCU: 0xE56A, offset: 0xE56A, size: 0x8, addend: 0x0, symName: __ZNSt3__1neB8ue170006INS_16reverse_iteratorIP7ElementEES4_EEbRKNS1_IT_EERKNS1_IT0_EE, symObjAddr: 0x14780, symBinAddr: 0x100015440, symSize: 0x50 }
  - { offsetInCU: 0xE5B6, offset: 0xE5B6, size: 0x8, addend: 0x0, symName: __ZNSt3__112__to_addressB8ue170006INS_16reverse_iteratorINS1_IP7ElementEEEEvEEu7__decayIDTclsr19__to_address_helperIT_EE6__callclsr3stdE7declvalIRKS6_EEEEES8_, symObjAddr: 0x147D0, symBinAddr: 0x100015490, symSize: 0x20 }
  - { offsetInCU: 0xE615, offset: 0xE615, size: 0x8, addend: 0x0, symName: __ZNSt3__111__push_heapB8ue170006INS_17_ClassicAlgPolicyENS_11__wrap_iterIP7ElementEE7CompareEEvT0_S7_RT1_, symObjAddr: 0x14B30, symBinAddr: 0x1000157F0, symSize: 0x50 }
  - { offsetInCU: 0xE682, offset: 0xE682, size: 0x8, addend: 0x0, symName: __ZNSt3__1miB8ue170006IP7ElementS2_EEDTmicldtfp_4baseEcldtfp0_4baseEERKNS_11__wrap_iterIT_EERKNS4_IT0_EE, symObjAddr: 0x14B80, symBinAddr: 0x100015840, symSize: 0x40 }
  - { offsetInCU: 0xE6CE, offset: 0xE6CE, size: 0x8, addend: 0x0, symName: __ZNSt3__19__sift_upB8ue170006INS_17_ClassicAlgPolicyER7CompareNS_11__wrap_iterIP7ElementEEEEvT1_S8_OT0_NS_15iterator_traitsIS8_E15difference_typeE, symObjAddr: 0x14BC0, symBinAddr: 0x100015880, symSize: 0x1B0 }
  - { offsetInCU: 0xE815, offset: 0xE815, size: 0x8, addend: 0x0, symName: __ZNSt3__142__uninitialized_allocator_move_if_noexceptB8ue170006INS_9allocatorI4MoveEENS_16reverse_iteratorIPS2_EES6_S6_EET2_RT_T0_T1_S7_, symObjAddr: 0x15550, symBinAddr: 0x100016210, symSize: 0x170 }
  - { offsetInCU: 0xE8B4, offset: 0xE8B4, size: 0x8, addend: 0x0, symName: __ZNSt3__14swapB8ue170006IP4MoveEENS_9enable_ifIXaasr21is_move_constructibleIT_EE5valuesr18is_move_assignableIS4_EE5valueEvE4typeERS4_S7_, symObjAddr: 0x156C0, symBinAddr: 0x100016380, symSize: 0x40 }
  - { offsetInCU: 0xE905, offset: 0xE905, size: 0x8, addend: 0x0, symName: __ZNSt3__122__make_exception_guardB8ue170006INS_29_AllocatorDestroyRangeReverseINS_9allocatorI4MoveEENS_16reverse_iteratorIPS3_EEEEEENS_28__exception_guard_exceptionsIT_EESA_, symObjAddr: 0x15700, symBinAddr: 0x1000163C0, symSize: 0x60 }
  - { offsetInCU: 0xE93A, offset: 0xE93A, size: 0x8, addend: 0x0, symName: __ZNSt3__119__allocator_destroyB8ue170006INS_9allocatorI4MoveEENS_16reverse_iteratorINS4_IPS2_EEEES7_EEvRT_T0_T1_, symObjAddr: 0x159C0, symBinAddr: 0x100016680, symSize: 0x70 }
  - { offsetInCU: 0xE99D, offset: 0xE99D, size: 0x8, addend: 0x0, symName: __ZNSt3__1neB8ue170006INS_16reverse_iteratorIP4MoveEES4_EEbRKNS1_IT_EERKNS1_IT0_EE, symObjAddr: 0x15A60, symBinAddr: 0x100016720, symSize: 0x50 }
  - { offsetInCU: 0xE9E9, offset: 0xE9E9, size: 0x8, addend: 0x0, symName: __ZNSt3__112__to_addressB8ue170006INS_16reverse_iteratorINS1_IP4MoveEEEEvEEu7__decayIDTclsr19__to_address_helperIT_EE6__callclsr3stdE7declvalIRKS6_EEEEES8_, symObjAddr: 0x15AB0, symBinAddr: 0x100016770, symSize: 0x20 }
  - { offsetInCU: 0xEA48, offset: 0xEA48, size: 0x8, addend: 0x0, symName: __ZNSt3__18pop_heapB8ue170006INS_11__wrap_iterIP7ElementEE7CompareEEvT_S6_T0_, symObjAddr: 0x16680, symBinAddr: 0x100017340, symSize: 0x50 }
  - { offsetInCU: 0xEAAC, offset: 0xEAAC, size: 0x8, addend: 0x0, symName: __ZNSt3__110__pop_heapB8ue170006INS_17_ClassicAlgPolicyE7CompareNS_11__wrap_iterIP7ElementEEEEvT1_S7_RT0_NS_15iterator_traitsIS7_E15difference_typeE, symObjAddr: 0x16700, symBinAddr: 0x1000173C0, symSize: 0x190 }
  - { offsetInCU: 0xEB56, offset: 0xEB56, size: 0x8, addend: 0x0, symName: __ZNSt3__1eqB8ue170006IP7ElementEEbRKNS_11__wrap_iterIT_EES7_, symObjAddr: 0x169C0, symBinAddr: 0x100017680, symSize: 0x40 }
  - { offsetInCU: 0xEB99, offset: 0xEB99, size: 0x8, addend: 0x0, symName: __ZNSt3__1miB8ue170006IPK7ElementS3_EEDTmicldtfp_4baseEcldtfp0_4baseEERKNS_11__wrap_iterIT_EERKNS5_IT0_EE, symObjAddr: 0x16B30, symBinAddr: 0x1000177F0, symSize: 0x40 }
  - { offsetInCU: 0xEBE5, offset: 0xEBE5, size: 0x8, addend: 0x0, symName: __ZNSt3__14moveB8ue170006IP7ElementS2_EET0_T_S4_S3_, symObjAddr: 0x16BA0, symBinAddr: 0x100017860, symSize: 0x40 }
  - { offsetInCU: 0xEC3F, offset: 0xEC3F, size: 0x8, addend: 0x0, symName: __ZNSt3__16__moveB8ue170006INS_17_ClassicAlgPolicyEP7ElementS3_S3_EENS_4pairIT0_T2_EES5_T1_S6_, symObjAddr: 0x16CB0, symBinAddr: 0x100017970, symSize: 0x40 }
  - { offsetInCU: 0xECAB, offset: 0xECAB, size: 0x8, addend: 0x0, symName: __ZNSt3__123__dispatch_copy_or_moveB8ue170006INS_17_ClassicAlgPolicyENS_11__move_loopIS1_EENS_14__move_trivialEP7ElementS6_S6_EENS_4pairIT2_T4_EES8_T3_S9_, symObjAddr: 0x16CF0, symBinAddr: 0x1000179B0, symSize: 0x40 }
  - { offsetInCU: 0xED29, offset: 0xED29, size: 0x8, addend: 0x0, symName: __ZNSt3__121__unwrap_and_dispatchB8ue170006INS_10__overloadINS_11__move_loopINS_17_ClassicAlgPolicyEEENS_14__move_trivialEEEP7ElementS8_S8_Li0EEENS_4pairIT0_T2_EESA_T1_SB_, symObjAddr: 0x16D30, symBinAddr: 0x1000179F0, symSize: 0xB0 }
  - { offsetInCU: 0xEDB8, offset: 0xEDB8, size: 0x8, addend: 0x0, symName: __ZNSt3__114__unwrap_rangeB8ue170006IP7ElementS2_EENS_4pairIT0_S4_EET_S6_, symObjAddr: 0x16DE0, symBinAddr: 0x100017AA0, symSize: 0x50 }
  - { offsetInCU: 0xEF2A, offset: 0xEF2A, size: 0x8, addend: 0x0, symName: __ZNSt3__113__unwrap_iterB8ue170006IP7ElementNS_18__unwrap_iter_implIS2_Lb1EEELi0EEEDTclsrT0_8__unwrapclsr3stdE7declvalIT_EEEES6_, symObjAddr: 0x16EB0, symBinAddr: 0x100017B70, symSize: 0x20 }
  - { offsetInCU: 0xEF6E, offset: 0xEF6E, size: 0x8, addend: 0x0, symName: __ZNSt3__19make_pairB8ue170006IP7ElementS2_EENS_4pairINS_18__unwrap_ref_decayIT_E4typeENS4_IT0_E4typeEEEOS5_OS8_, symObjAddr: 0x16ED0, symBinAddr: 0x100017B90, symSize: 0x30 }
  - { offsetInCU: 0xEFBD, offset: 0xEFBD, size: 0x8, addend: 0x0, symName: __ZNSt3__114__rewrap_rangeB8ue170006IP7ElementS2_EET_S3_T0_, symObjAddr: 0x16F00, symBinAddr: 0x100017BC0, symSize: 0x30 }
  - { offsetInCU: 0xF009, offset: 0xF009, size: 0x8, addend: 0x0, symName: __ZNSt3__113__rewrap_iterB8ue170006IP7ElementS2_NS_18__unwrap_iter_implIS2_Lb1EEEEET_S5_T0_, symObjAddr: 0x16F30, symBinAddr: 0x100017BF0, symSize: 0x40 }
  - { offsetInCU: 0xF50A, offset: 0xF50A, size: 0x8, addend: 0x0, symName: __ZNSt3__14swapB8ue170006IPPP7CommandEENS_9enable_ifIXaasr21is_move_constructibleIT_EE5valuesr18is_move_assignableIS6_EE5valueEvE4typeERS6_S9_, symObjAddr: 0x183C0, symBinAddr: 0x100019080, symSize: 0x40 }
  - { offsetInCU: 0xF55B, offset: 0xF55B, size: 0x8, addend: 0x0, symName: __ZNSt3__14moveB8ue170006IPPP7CommandS4_EET0_T_S6_S5_, symObjAddr: 0x18480, symBinAddr: 0x100019140, symSize: 0x40 }
  - { offsetInCU: 0xF5B5, offset: 0xF5B5, size: 0x8, addend: 0x0, symName: __ZNSt3__16__moveB8ue170006INS_17_ClassicAlgPolicyEPPP7CommandS5_S5_EENS_4pairIT0_T2_EES7_T1_S8_, symObjAddr: 0x18580, symBinAddr: 0x100019240, symSize: 0x40 }
  - { offsetInCU: 0xF621, offset: 0xF621, size: 0x8, addend: 0x0, symName: __ZNSt3__123__dispatch_copy_or_moveB8ue170006INS_17_ClassicAlgPolicyENS_11__move_loopIS1_EENS_14__move_trivialEPPP7CommandS8_S8_EENS_4pairIT2_T4_EESA_T3_SB_, symObjAddr: 0x185C0, symBinAddr: 0x100019280, symSize: 0x40 }
  - { offsetInCU: 0xF69F, offset: 0xF69F, size: 0x8, addend: 0x0, symName: __ZNSt3__121__unwrap_and_dispatchB8ue170006INS_10__overloadINS_11__move_loopINS_17_ClassicAlgPolicyEEENS_14__move_trivialEEEPPP7CommandSA_SA_Li0EEENS_4pairIT0_T2_EESC_T1_SD_, symObjAddr: 0x18600, symBinAddr: 0x1000192C0, symSize: 0xB0 }
  - { offsetInCU: 0xF72E, offset: 0xF72E, size: 0x8, addend: 0x0, symName: __ZNSt3__114__unwrap_rangeB8ue170006IPPP7CommandS4_EENS_4pairIT0_S6_EET_S8_, symObjAddr: 0x186B0, symBinAddr: 0x100019370, symSize: 0x50 }
  - { offsetInCU: 0xF8F2, offset: 0xF8F2, size: 0x8, addend: 0x0, symName: __ZNSt3__113__unwrap_iterB8ue170006IPPP7CommandNS_18__unwrap_iter_implIS4_Lb1EEELi0EEEDTclsrT0_8__unwrapclsr3stdE7declvalIT_EEEES8_, symObjAddr: 0x18740, symBinAddr: 0x100019400, symSize: 0x20 }
  - { offsetInCU: 0xF936, offset: 0xF936, size: 0x8, addend: 0x0, symName: __ZNSt3__19make_pairB8ue170006IPPP7CommandS4_EENS_4pairINS_18__unwrap_ref_decayIT_E4typeENS6_IT0_E4typeEEEOS7_OSA_, symObjAddr: 0x18760, symBinAddr: 0x100019420, symSize: 0x30 }
  - { offsetInCU: 0xF985, offset: 0xF985, size: 0x8, addend: 0x0, symName: __ZNSt3__114__rewrap_rangeB8ue170006IPPP7CommandS4_EET_S5_T0_, symObjAddr: 0x18790, symBinAddr: 0x100019450, symSize: 0x30 }
  - { offsetInCU: 0xF9D1, offset: 0xF9D1, size: 0x8, addend: 0x0, symName: __ZNSt3__113__rewrap_iterB8ue170006IPPP7CommandS4_NS_18__unwrap_iter_implIS4_Lb1EEEEET_S7_T0_, symObjAddr: 0x187C0, symBinAddr: 0x100019480, symSize: 0x40 }
  - { offsetInCU: 0xFA26, offset: 0xFA26, size: 0x8, addend: 0x0, symName: __ZNSt3__119__copy_trivial_implB8ue170006IPP7CommandS3_EENS_4pairIPT_PT0_EES6_S6_S8_, symObjAddr: 0x18800, symBinAddr: 0x1000194C0, symSize: 0x70 }
  - { offsetInCU: 0xFA8E, offset: 0xFA8E, size: 0x8, addend: 0x0, symName: __ZNSt3__119__constexpr_memmoveB8ue170006IPP7CommandS3_Li0EEEPT_S5_PT0_NS_15__element_countE, symObjAddr: 0x18870, symBinAddr: 0x100019530, symSize: 0x50 }
  - { offsetInCU: 0xFAFC, offset: 0xFAFC, size: 0x8, addend: 0x0, symName: __ZNSt3__19make_pairB8ue170006IRPPP7CommandS4_EENS_4pairINS_18__unwrap_ref_decayIT_E4typeENS7_IT0_E4typeEEEOS8_OSB_, symObjAddr: 0x188C0, symBinAddr: 0x100019580, symSize: 0x30 }
  - { offsetInCU: 0xFB9E, offset: 0xFB9E, size: 0x8, addend: 0x0, symName: __ZNSt3__18distanceB8ue170006INS_13move_iteratorIPPP7CommandEEEENS_15iterator_traitsIT_E15difference_typeES8_S8_, symObjAddr: 0x18B00, symBinAddr: 0x1000197C0, symSize: 0x40 }
  - { offsetInCU: 0xFBE1, offset: 0xFBE1, size: 0x8, addend: 0x0, symName: __ZNSt3__110__distanceB8ue170006INS_13move_iteratorIPPP7CommandEEEENS_15iterator_traitsIT_E15difference_typeES8_S8_NS_26random_access_iterator_tagE, symObjAddr: 0x18CE0, symBinAddr: 0x1000199A0, symSize: 0x30 }
  - { offsetInCU: 0xFC2E, offset: 0xFC2E, size: 0x8, addend: 0x0, symName: __ZNSt3__1miB8ue170006IPPP7CommandS4_EEDTmicldtfp_4baseEcldtfp0_4baseEERKNS_13move_iteratorIT_EERKNS6_IT0_EE, symObjAddr: 0x18D10, symBinAddr: 0x1000199D0, symSize: 0x40 }
  - { offsetInCU: 0xFC7D, offset: 0xFC7D, size: 0x8, addend: 0x0, symName: __ZNSt3__113move_backwardB8ue170006IPPP7CommandS4_EET0_T_S6_S5_, symObjAddr: 0x18E40, symBinAddr: 0x100019B00, symSize: 0x40 }
  - { offsetInCU: 0xFCD7, offset: 0xFCD7, size: 0x8, addend: 0x0, symName: __ZNSt3__115__move_backwardB8ue170006INS_17_ClassicAlgPolicyEPPP7CommandS5_S5_EENS_4pairIT0_T2_EES7_T1_S8_, symObjAddr: 0x18E80, symBinAddr: 0x100019B40, symSize: 0x40 }
  - { offsetInCU: 0xFD43, offset: 0xFD43, size: 0x8, addend: 0x0, symName: __ZNSt3__123__dispatch_copy_or_moveB8ue170006INS_17_ClassicAlgPolicyENS_20__move_backward_loopIS1_EENS_23__move_backward_trivialEPPP7CommandS8_S8_EENS_4pairIT2_T4_EESA_T3_SB_, symObjAddr: 0x18EC0, symBinAddr: 0x100019B80, symSize: 0x40 }
  - { offsetInCU: 0xFDC1, offset: 0xFDC1, size: 0x8, addend: 0x0, symName: __ZNSt3__121__unwrap_and_dispatchB8ue170006INS_10__overloadINS_20__move_backward_loopINS_17_ClassicAlgPolicyEEENS_23__move_backward_trivialEEEPPP7CommandSA_SA_Li0EEENS_4pairIT0_T2_EESC_T1_SD_, symObjAddr: 0x18F00, symBinAddr: 0x100019BC0, symSize: 0xB0 }
  - { offsetInCU: 0xFE96, offset: 0xFE96, size: 0x8, addend: 0x0, symName: __ZNSt3__128__copy_backward_trivial_implB8ue170006IPP7CommandS3_EENS_4pairIPT_PT0_EES6_S6_S8_, symObjAddr: 0x18FF0, symBinAddr: 0x100019CB0, symSize: 0x70 }
  - { offsetInCU: 0xFEFE, offset: 0xFEFE, size: 0x8, addend: 0x0, symName: __ZNSt3__19make_pairB8ue170006IRPPP7CommandS5_EENS_4pairINS_18__unwrap_ref_decayIT_E4typeENS7_IT0_E4typeEEEOS8_OSB_, symObjAddr: 0x19060, symBinAddr: 0x100019D20, symSize: 0x30 }
  - { offsetInCU: 0xFF4D, offset: 0xFF4D, size: 0x8, addend: 0x0, symName: __ZNSt3__119__allocate_at_leastB8ue170006INS_9allocatorIPP7CommandEEEENS_19__allocation_resultINS_16allocator_traitsIT_E7pointerEEERS8_m, symObjAddr: 0x191F0, symBinAddr: 0x100019EB0, symSize: 0x40 }
  - { offsetInCU: 0x10437, offset: 0x10437, size: 0x8, addend: 0x0, symName: __ZSt28__throw_bad_array_new_lengthB8ue170006v, symObjAddr: 0xDBD0, symBinAddr: 0x10000E890, symSize: 0x40 }
  - { offsetInCU: 0x10B5C, offset: 0x10B5C, size: 0x8, addend: 0x0, symName: __ZNKSt3__16chrono15__duration_castINS0_8durationIxNS_5ratioILl1ELl1000000000EEEEENS2_IdNS3_ILl1ELl1EEEEES4_Lb1ELb0EEclB8ue170006ERKS5_, symObjAddr: 0xCE30, symBinAddr: 0x10000DAF0, symSize: 0x50 }
  - { offsetInCU: 0x10EA0, offset: 0x10EA0, size: 0x8, addend: 0x0, symName: __ZNSt3__124uniform_int_distributionIiEclINS_23mersenne_twister_engineIjLm32ELm624ELm397ELm31ELj2567483615ELm11ELj4294967295ELm7ELj2636928640ELm15ELj4022730752ELm18ELj1812433253EEEEEiRT_RKNS1_10param_typeE, symObjAddr: 0x12020, symBinAddr: 0x100012CE0, symSize: 0x150 }
  - { offsetInCU: 0x11262, offset: 0x11262, size: 0x8, addend: 0x0, symName: __ZNSt3__16vectorI7ElementNS_9allocatorIS1_EEE26__swap_out_circular_bufferERNS_14__split_bufferIS1_RS3_EE, symObjAddr: 0x13AF0, symBinAddr: 0x1000147B0, symSize: 0x120 }
  - { offsetInCU: 0x112F5, offset: 0x112F5, size: 0x8, addend: 0x0, symName: __ZNSt3__16vectorI4MoveNS_9allocatorIS1_EEE26__swap_out_circular_bufferERNS_14__split_bufferIS1_RS3_EE, symObjAddr: 0x15220, symBinAddr: 0x100015EE0, symSize: 0x120 }
  - { offsetInCU: 0x11373, offset: 0x11373, size: 0x8, addend: 0x0, symName: __Z3powB8ue170006IfiENSt3__19enable_ifIXaasr3std13is_arithmeticIT_EE5valuesr3std13is_arithmeticIT0_EE5valueENS0_9__promoteIS2_S3_vEEE4type4typeES2_S3_, symObjAddr: 0x76F0, symBinAddr: 0x1000083B0, symSize: 0x30 }
  - { offsetInCU: 0x137F3, offset: 0x137F3, size: 0x8, addend: 0x0, symName: __ZN6Square11changePieceENSt3__112basic_stringIcNS0_11char_traitsIcEENS0_9allocatorIcEEEE, symObjAddr: 0x0, symBinAddr: 0x100000CC0, symSize: 0x30 }
  - { offsetInCU: 0x13829, offset: 0x13829, size: 0x8, addend: 0x0, symName: __ZN6Square9truePieceEv, symObjAddr: 0x30, symBinAddr: 0x100000CF0, symSize: 0x60 }
  - { offsetInCU: 0x13850, offset: 0x13850, size: 0x8, addend: 0x0, symName: __ZNKSt3__112basic_stringIcNS_11char_traitsIcEENS_9allocatorIcEEE6substrB8ue170006Emm, symObjAddr: 0x90, symBinAddr: 0x100000D50, symSize: 0x70 }
  - { offsetInCU: 0x13894, offset: 0x13894, size: 0x8, addend: 0x0, symName: __ZNKSt3__112basic_stringIcNS_11char_traitsIcEENS_9allocatorIcEEE6lengthB8ue170006Ev, symObjAddr: 0x100, symBinAddr: 0x100000DC0, symSize: 0x20 }
  - { offsetInCU: 0x138B9, offset: 0x138B9, size: 0x8, addend: 0x0, symName: __Z10TimePassedd, symObjAddr: 0x120, symBinAddr: 0x100000DE0, symSize: 0x60 }
  - { offsetInCU: 0x138F3, offset: 0x138F3, size: 0x8, addend: 0x0, symName: __Z14random_integerii, symObjAddr: 0x180, symBinAddr: 0x100000E40, symSize: 0xD0 }
  - { offsetInCU: 0x13973, offset: 0x13973, size: 0x8, addend: 0x0, symName: __ZNSt3__113random_deviceC1B8ue170006Ev, symObjAddr: 0x250, symBinAddr: 0x100000F10, symSize: 0x70 }
  - { offsetInCU: 0x1399D, offset: 0x1399D, size: 0x8, addend: 0x0, symName: __ZNSt3__123mersenne_twister_engineIjLm32ELm624ELm397ELm31ELj2567483615ELm11ELj4294967295ELm7ELj2636928640ELm15ELj4022730752ELm18ELj1812433253EEC1B8ue170006Ej, symObjAddr: 0x2C0, symBinAddr: 0x100000F80, symSize: 0x30 }
  - { offsetInCU: 0x139D5, offset: 0x139D5, size: 0x8, addend: 0x0, symName: __ZNSt3__124uniform_int_distributionIiEC1B8ue170006Eii, symObjAddr: 0x2F0, symBinAddr: 0x100000FB0, symSize: 0x30 }
  - { offsetInCU: 0x13A1B, offset: 0x13A1B, size: 0x8, addend: 0x0, symName: __ZNSt3__124uniform_int_distributionIiEclB8ue170006INS_23mersenne_twister_engineIjLm32ELm624ELm397ELm31ELj2567483615ELm11ELj4294967295ELm7ELj2636928640ELm15ELj4022730752ELm18ELj1812433253EEEEEiRT_, symObjAddr: 0x320, symBinAddr: 0x100000FE0, symSize: 0x30 }
  - { offsetInCU: 0x13A57, offset: 0x13A57, size: 0x8, addend: 0x0, symName: __Z12zeroIntArrayRA8_A8_i, symObjAddr: 0x350, symBinAddr: 0x100001010, symSize: 0x70 }
  - { offsetInCU: 0x13AB9, offset: 0x13AB9, size: 0x8, addend: 0x0, symName: __Z9copyBoardRA8_A8_6SquareS2_, symObjAddr: 0x3C0, symBinAddr: 0x100001080, symSize: 0xA0 }
  - { offsetInCU: 0x13B29, offset: 0x13B29, size: 0x8, addend: 0x0, symName: __Z14visualizeArrayPA8_NSt3__16vectorI4MoveNS_9allocatorIS1_EEEE, symObjAddr: 0x460, symBinAddr: 0x100001120, symSize: 0x120 }
  - { offsetInCU: 0x13B8C, offset: 0x13B8C, size: 0x8, addend: 0x0, symName: __ZNKSt3__16vectorI4MoveNS_9allocatorIS1_EEE5emptyB8ue170006Ev, symObjAddr: 0x5E0, symBinAddr: 0x1000012A0, symSize: 0x20 }
  - { offsetInCU: 0x13BB2, offset: 0x13BB2, size: 0x8, addend: 0x0, symName: __ZNSt3__16vectorI4MoveNS_9allocatorIS1_EEE5frontB8ue170006Ev, symObjAddr: 0x600, symBinAddr: 0x1000012C0, symSize: 0x20 }
  - { offsetInCU: 0x13BD8, offset: 0x13BD8, size: 0x8, addend: 0x0, symName: __ZNSt3__113basic_ostreamIcNS_11char_traitsIcEEElsB8ue170006EPFRS3_S4_E, symObjAddr: 0x620, symBinAddr: 0x1000012E0, symSize: 0x20 }
  - { offsetInCU: 0x13C0B, offset: 0x13C0B, size: 0x8, addend: 0x0, symName: __Z13zeroMoveArrayRA8_A8_NSt3__16vectorI4MoveNS_9allocatorIS1_EEEE, symObjAddr: 0x6D0, symBinAddr: 0x100001390, symSize: 0x80 }
  - { offsetInCU: 0x13C6E, offset: 0x13C6E, size: 0x8, addend: 0x0, symName: __ZNSt3__16vectorI4MoveNS_9allocatorIS1_EEE5clearB8ue170006Ev, symObjAddr: 0x750, symBinAddr: 0x100001410, symSize: 0x40 }
  - { offsetInCU: 0x142AE, offset: 0x142AE, size: 0x8, addend: 0x0, symName: __ZN5Board9rankMovesEcRA8_A8_NSt3__16vectorI4MoveNS0_9allocatorIS2_EEEERS_, symObjAddr: 0x790, symBinAddr: 0x100001450, symSize: 0x390 }
  - { offsetInCU: 0x1438A, offset: 0x1438A, size: 0x8, addend: 0x0, symName: __ZNSt3__114priority_queueI7ElementNS_6vectorIS1_NS_9allocatorIS1_EEEE7CompareEC1B8ue170006Ev, symObjAddr: 0xB20, symBinAddr: 0x1000017E0, symSize: 0x20 }
  - { offsetInCU: 0x143B4, offset: 0x143B4, size: 0x8, addend: 0x0, symName: __ZNSt3__16vectorI4MoveNS_9allocatorIS1_EEE4backB8ue170006Ev, symObjAddr: 0xB40, symBinAddr: 0x100001800, symSize: 0x20 }
  - { offsetInCU: 0x143DA, offset: 0x143DA, size: 0x8, addend: 0x0, symName: __ZN4MoveC1ERKS_, symObjAddr: 0xB60, symBinAddr: 0x100001820, symSize: 0x30 }
  - { offsetInCU: 0x1440F, offset: 0x1440F, size: 0x8, addend: 0x0, symName: __ZNSt3__16vectorI4MoveNS_9allocatorIS1_EEE8pop_backEv, symObjAddr: 0xB90, symBinAddr: 0x100001850, symSize: 0x30 }
  - { offsetInCU: 0x14437, offset: 0x14437, size: 0x8, addend: 0x0, symName: __ZNSt3__114priority_queueI7ElementNS_6vectorIS1_NS_9allocatorIS1_EEEE7CompareE4pushEOS1_, symObjAddr: 0xC50, symBinAddr: 0x100001910, symSize: 0x50 }
  - { offsetInCU: 0x14473, offset: 0x14473, size: 0x8, addend: 0x0, symName: __ZN7ElementD1Ev, symObjAddr: 0xCA0, symBinAddr: 0x100001960, symSize: 0x20 }
  - { offsetInCU: 0x1449F, offset: 0x1449F, size: 0x8, addend: 0x0, symName: __ZN4MoveD1Ev, symObjAddr: 0xCC0, symBinAddr: 0x100001980, symSize: 0x20 }
  - { offsetInCU: 0x144CB, offset: 0x144CB, size: 0x8, addend: 0x0, symName: __ZNSt3__114priority_queueI7ElementNS_6vectorIS1_NS_9allocatorIS1_EEEE7CompareED1Ev, symObjAddr: 0xCE0, symBinAddr: 0x1000019A0, symSize: 0x20 }
  - { offsetInCU: 0x144F8, offset: 0x144F8, size: 0x8, addend: 0x0, symName: __ZN5Board10resetBoardEv, symObjAddr: 0xD00, symBinAddr: 0x1000019C0, symSize: 0x80 }
  - { offsetInCU: 0x1451F, offset: 0x1451F, size: 0x8, addend: 0x0, symName: __ZN5Board10clearBoardEv, symObjAddr: 0xD80, symBinAddr: 0x100001A40, symSize: 0x110 }
  - { offsetInCU: 0x14582, offset: 0x14582, size: 0x8, addend: 0x0, symName: __ZN5Board15clearHighlightsEv, symObjAddr: 0xE90, symBinAddr: 0x100001B50, symSize: 0x90 }
  - { offsetInCU: 0x145E3, offset: 0x145E3, size: 0x8, addend: 0x0, symName: __ZN5Board9initPawnsEv, symObjAddr: 0xF20, symBinAddr: 0x100001BE0, symSize: 0x270 }
  - { offsetInCU: 0x14620, offset: 0x14620, size: 0x8, addend: 0x0, symName: __ZN5Board9initRooksEv, symObjAddr: 0x1190, symBinAddr: 0x100001E50, symSize: 0x3D0 }
  - { offsetInCU: 0x14648, offset: 0x14648, size: 0x8, addend: 0x0, symName: __ZN5Board11initKnightsEv, symObjAddr: 0x1560, symBinAddr: 0x100002220, symSize: 0x3D0 }
  - { offsetInCU: 0x14670, offset: 0x14670, size: 0x8, addend: 0x0, symName: __ZN5Board11initBishopsEv, symObjAddr: 0x1930, symBinAddr: 0x1000025F0, symSize: 0x3D0 }
  - { offsetInCU: 0x14698, offset: 0x14698, size: 0x8, addend: 0x0, symName: __ZN5Board9initKingsEv, symObjAddr: 0x1D00, symBinAddr: 0x1000029C0, symSize: 0x2B0 }
  - { offsetInCU: 0x146C0, offset: 0x146C0, size: 0x8, addend: 0x0, symName: __ZN5Board10initQueensEv, symObjAddr: 0x1FB0, symBinAddr: 0x100002C70, symSize: 0x210 }
  - { offsetInCU: 0x146E8, offset: 0x146E8, size: 0x8, addend: 0x0, symName: __ZN5Board10checkCheckEc, symObjAddr: 0x21C0, symBinAddr: 0x100002E80, symSize: 0x560 }
  - { offsetInCU: 0x1473D, offset: 0x1473D, size: 0x8, addend: 0x0, symName: __ZN6SquareC1Ev, symObjAddr: 0x2720, symBinAddr: 0x1000033E0, symSize: 0x20 }
  - { offsetInCU: 0x14767, offset: 0x14767, size: 0x8, addend: 0x0, symName: __ZN6SquareD1Ev, symObjAddr: 0x2740, symBinAddr: 0x100003400, symSize: 0x20 }
  - { offsetInCU: 0x14791, offset: 0x14791, size: 0x8, addend: 0x0, symName: __ZNSt3__16vectorI4MoveNS_9allocatorIS1_EEEC1B8ue170006Ev, symObjAddr: 0x2760, symBinAddr: 0x100003420, symSize: 0x20 }
  - { offsetInCU: 0x147BB, offset: 0x147BB, size: 0x8, addend: 0x0, symName: __ZN5Board18determineAllPiecesEcRA8_A8_6SquareRA8_A8_NSt3__16vectorI4MoveNS4_9allocatorIS6_EEEE, symObjAddr: 0x2780, symBinAddr: 0x100003440, symSize: 0x1C0 }
  - { offsetInCU: 0x14875, offset: 0x14875, size: 0x8, addend: 0x0, symName: __ZNSt3__16vectorI4MoveNS_9allocatorIS1_EEED1B8ue170006Ev, symObjAddr: 0x2940, symBinAddr: 0x100003600, symSize: 0x20 }
  - { offsetInCU: 0x1489F, offset: 0x1489F, size: 0x8, addend: 0x0, symName: __ZN6SquareC1E5Color, symObjAddr: 0x2960, symBinAddr: 0x100003620, symSize: 0x30 }
  - { offsetInCU: 0x148E6, offset: 0x148E6, size: 0x8, addend: 0x0, symName: __ZN6SquareaSERKS_, symObjAddr: 0x2990, symBinAddr: 0x100003650, symSize: 0x50 }
  - { offsetInCU: 0x14917, offset: 0x14917, size: 0x8, addend: 0x0, symName: __ZNSt3__112basic_stringIcNS_11char_traitsIcEENS_9allocatorIcEEEixB8ue170006Em, symObjAddr: 0x29E0, symBinAddr: 0x1000036A0, symSize: 0x30 }
  - { offsetInCU: 0x1494C, offset: 0x1494C, size: 0x8, addend: 0x0, symName: __ZN5Board14determineMovesE2xyNSt3__112basic_stringIcNS1_11char_traitsIcEENS1_9allocatorIcEEEERA8_A8_NS1_6vectorI4MoveNS5_IS9_EEEERA8_A8_6Square, symObjAddr: 0x2A10, symBinAddr: 0x1000036D0, symSize: 0x1A0 }
  - { offsetInCU: 0x149AC, offset: 0x149AC, size: 0x8, addend: 0x0, symName: __ZN5Board13determineRookE2xyRA8_A8_NSt3__16vectorI4MoveNS1_9allocatorIS3_EEEERA8_A8_6Square, symObjAddr: 0x2BB0, symBinAddr: 0x100003870, symSize: 0x1740 }
  - { offsetInCU: 0x14AE1, offset: 0x14AE1, size: 0x8, addend: 0x0, symName: __ZN5Board13determinePawnE2xyRA8_A8_NSt3__16vectorI4MoveNS1_9allocatorIS3_EEEERA8_A8_6Square, symObjAddr: 0x42F0, symBinAddr: 0x100004FB0, symSize: 0x150 }
  - { offsetInCU: 0x14B55, offset: 0x14B55, size: 0x8, addend: 0x0, symName: __ZN5Board15determineBishopE2xyRA8_A8_NSt3__16vectorI4MoveNS1_9allocatorIS3_EEEERA8_A8_6Square, symObjAddr: 0x4440, symBinAddr: 0x100005100, symSize: 0xE10 }
  - { offsetInCU: 0x14CA4, offset: 0x14CA4, size: 0x8, addend: 0x0, symName: __ZN5Board14determineQueenE2xyRA8_A8_NSt3__16vectorI4MoveNS1_9allocatorIS3_EEEERA8_A8_6Square, symObjAddr: 0x5250, symBinAddr: 0x100005F10, symSize: 0x60 }
  - { offsetInCU: 0x14CF9, offset: 0x14CF9, size: 0x8, addend: 0x0, symName: __ZN5Board15determineKnightE2xyRA8_A8_NSt3__16vectorI4MoveNS1_9allocatorIS3_EEEERA8_A8_6Square, symObjAddr: 0x52B0, symBinAddr: 0x100005F70, symSize: 0x310 }
  - { offsetInCU: 0x14D7D, offset: 0x14D7D, size: 0x8, addend: 0x0, symName: __ZN5Board13determineKingE2xyRA8_A8_NSt3__16vectorI4MoveNS1_9allocatorIS3_EEEERA8_A8_6Square, symObjAddr: 0x55C0, symBinAddr: 0x100006280, symSize: 0x230 }
  - { offsetInCU: 0x14DDC, offset: 0x14DDC, size: 0x8, addend: 0x0, symName: __ZN5Board8getPieceE2xy, symObjAddr: 0x57F0, symBinAddr: 0x1000064B0, symSize: 0x50 }
  - { offsetInCU: 0x14E13, offset: 0x14E13, size: 0x8, addend: 0x0, symName: __ZN5Board12kingMoveableE2xyiicRA8_A8_NSt3__16vectorI4MoveNS1_9allocatorIS3_EEEERA8_A8_6Square, symObjAddr: 0x5840, symBinAddr: 0x100006500, symSize: 0x2D0 }
  - { offsetInCU: 0x14EA2, offset: 0x14EA2, size: 0x8, addend: 0x0, symName: __ZNSt3__16vectorI4MoveNS_9allocatorIS1_EEE9push_backB8ue170006EOS1_, symObjAddr: 0x5B10, symBinAddr: 0x1000067D0, symSize: 0x60 }
  - { offsetInCU: 0x14EDE, offset: 0x14EDE, size: 0x8, addend: 0x0, symName: __ZNSt3__112basic_stringIcNS_11char_traitsIcEENS_9allocatorIcEEEC1B8ue170006ILi0EEEPKc, symObjAddr: 0x5B70, symBinAddr: 0x100006830, symSize: 0x30 }
  - { offsetInCU: 0x14F1D, offset: 0x14F1D, size: 0x8, addend: 0x0, symName: __ZN4MoveC1Ei2xyS0_RKNSt3__112basic_stringIcNS1_11char_traitsIcEENS1_9allocatorIcEEEE, symObjAddr: 0x5BA0, symBinAddr: 0x100006860, symSize: 0x40 }
  - { offsetInCU: 0x14F7F, offset: 0x14F7F, size: 0x8, addend: 0x0, symName: __ZN5Board8findKingEcRA8_A8_6Square, symObjAddr: 0x5BE0, symBinAddr: 0x1000068A0, symSize: 0x170 }
  - { offsetInCU: 0x1501E, offset: 0x1501E, size: 0x8, addend: 0x0, symName: __ZN5Board17determineCastlingE2xyS0_, symObjAddr: 0x5D50, symBinAddr: 0x100006A10, symSize: 0x380 }
  - { offsetInCU: 0x15064, offset: 0x15064, size: 0x8, addend: 0x0, symName: __ZN5Board12knightHelperE2xycRA8_A8_NSt3__16vectorI4MoveNS1_9allocatorIS3_EEEERA8_A8_6Squareii, symObjAddr: 0x60D0, symBinAddr: 0x100006D90, symSize: 0x440 }
  - { offsetInCU: 0x150E6, offset: 0x150E6, size: 0x8, addend: 0x0, symName: __ZN5Board10pawnHelperEic2xyRA8_A8_NSt3__16vectorI4MoveNS1_9allocatorIS3_EEEERA8_A8_6Square, symObjAddr: 0x6510, symBinAddr: 0x1000071D0, symSize: 0x9D0 }
  - { offsetInCU: 0x1517D, offset: 0x1517D, size: 0x8, addend: 0x0, symName: __ZN5Board13highlightTileE2xyb, symObjAddr: 0x6EE0, symBinAddr: 0x100007BA0, symSize: 0x40 }
  - { offsetInCU: 0x151C3, offset: 0x151C3, size: 0x8, addend: 0x0, symName: __ZN5Board4moveE2xyS0_NSt3__112basic_stringIcNS1_11char_traitsIcEENS1_9allocatorIcEEEES7_, symObjAddr: 0x6F20, symBinAddr: 0x100007BE0, symSize: 0x1C0 }
  - { offsetInCU: 0x15239, offset: 0x15239, size: 0x8, addend: 0x0, symName: __ZN5Board19computeUpdatedScoreENSt3__112basic_stringIcNS0_11char_traitsIcEENS0_9allocatorIcEEEEi, symObjAddr: 0x70E0, symBinAddr: 0x100007DA0, symSize: 0x3D0 }
  - { offsetInCU: 0x1529F, offset: 0x1529F, size: 0x8, addend: 0x0, symName: __ZN5Board4undoE2xyS0_NSt3__112basic_stringIcNS1_11char_traitsIcEENS1_9allocatorIcEEEES7_, symObjAddr: 0x74B0, symBinAddr: 0x100008170, symSize: 0x1A0 }
  - { offsetInCU: 0x15315, offset: 0x15315, size: 0x8, addend: 0x0, symName: __ZN5Board12computeScoreEv, symObjAddr: 0x7650, symBinAddr: 0x100008310, symSize: 0xA0 }
  - { offsetInCU: 0x1533D, offset: 0x1533D, size: 0x8, addend: 0x0, symName: __ZN5Board4drawEv, symObjAddr: 0x7720, symBinAddr: 0x1000083E0, symSize: 0x1010 }
  - { offsetInCU: 0x1556F, offset: 0x1556F, size: 0x8, addend: 0x0, symName: __ZN6Player6selectE2xy, symObjAddr: 0x8730, symBinAddr: 0x1000093F0, symSize: 0x20 }
  - { offsetInCU: 0x155A4, offset: 0x155A4, size: 0x8, addend: 0x0, symName: __ZN6Player14setDestinationE2xy, symObjAddr: 0x8750, symBinAddr: 0x100009410, symSize: 0xB0 }
  - { offsetInCU: 0x155D8, offset: 0x155D8, size: 0x8, addend: 0x0, symName: __Z12freeCommandsRNSt3__15stackIP7CommandNS_5dequeIS2_NS_9allocatorIS2_EEEEEERNS_5queueIS2_S6_EE, symObjAddr: 0x8800, symBinAddr: 0x1000094C0, symSize: 0xB0 }
  - { offsetInCU: 0x1564B, offset: 0x1564B, size: 0x8, addend: 0x0, symName: __ZNKSt3__15stackIP7CommandNS_5dequeIS2_NS_9allocatorIS2_EEEEE5emptyB8ue170006Ev, symObjAddr: 0x88B0, symBinAddr: 0x100009570, symSize: 0x20 }
  - { offsetInCU: 0x15671, offset: 0x15671, size: 0x8, addend: 0x0, symName: __ZNSt3__15stackIP7CommandNS_5dequeIS2_NS_9allocatorIS2_EEEEE3topB8ue170006Ev, symObjAddr: 0x88D0, symBinAddr: 0x100009590, symSize: 0x20 }
  - { offsetInCU: 0x15697, offset: 0x15697, size: 0x8, addend: 0x0, symName: __ZNSt3__15stackIP7CommandNS_5dequeIS2_NS_9allocatorIS2_EEEEE3popB8ue170006Ev, symObjAddr: 0x88F0, symBinAddr: 0x1000095B0, symSize: 0x20 }
  - { offsetInCU: 0x156F9, offset: 0x156F9, size: 0x8, addend: 0x0, symName: __ZNKSt3__15queueIP7CommandNS_5dequeIS2_NS_9allocatorIS2_EEEEE5emptyB8ue170006Ev, symObjAddr: 0x8910, symBinAddr: 0x1000095D0, symSize: 0x20 }
  - { offsetInCU: 0x1571F, offset: 0x1571F, size: 0x8, addend: 0x0, symName: __ZNSt3__15queueIP7CommandNS_5dequeIS2_NS_9allocatorIS2_EEEEE5frontB8ue170006Ev, symObjAddr: 0x8930, symBinAddr: 0x1000095F0, symSize: 0x20 }
  - { offsetInCU: 0x15745, offset: 0x15745, size: 0x8, addend: 0x0, symName: __ZNSt3__15queueIP7CommandNS_5dequeIS2_NS_9allocatorIS2_EEEEE3popB8ue170006Ev, symObjAddr: 0x8950, symBinAddr: 0x100009610, symSize: 0x20 }
  - { offsetInCU: 0x158AA, offset: 0x158AA, size: 0x8, addend: 0x0, symName: __ZN12InputHandler11handleInputERbRNSt3__15queueIP7CommandNS1_5dequeIS4_NS1_9allocatorIS4_EEEEEEP6PlayerP5BoardSC_, symObjAddr: 0x8970, symBinAddr: 0x100009630, symSize: 0x270 }
  - { offsetInCU: 0x1593A, offset: 0x1593A, size: 0x8, addend: 0x0, symName: __ZN5Timer5resetEv, symObjAddr: 0x8BE0, symBinAddr: 0x1000098A0, symSize: 0x40 }
  - { offsetInCU: 0x15960, offset: 0x15960, size: 0x8, addend: 0x0, symName: __ZN6PlayerC1Ebc, symObjAddr: 0x8C20, symBinAddr: 0x1000098E0, symSize: 0x40 }
  - { offsetInCU: 0x159A6, offset: 0x159A6, size: 0x8, addend: 0x0, symName: __ZN12InputHandler14checkCheckmateERbP6PlayerP5BoardS2_, symObjAddr: 0x8C60, symBinAddr: 0x100009920, symSize: 0x870 }
  - { offsetInCU: 0x15ACA, offset: 0x15ACA, size: 0x8, addend: 0x0, symName: __ZN12InputHandler12handlePersonERbRNSt3__15queueIP7CommandNS1_5dequeIS4_NS1_9allocatorIS4_EEEEEEP6PlayerP5BoardSC_, symObjAddr: 0x94D0, symBinAddr: 0x10000A190, symSize: 0x220 }
  - { offsetInCU: 0x15B59, offset: 0x15B59, size: 0x8, addend: 0x0, symName: __ZN12InputHandler8handleAIERbRNSt3__15queueIP7CommandNS1_5dequeIS4_NS1_9allocatorIS4_EEEEEEP6PlayerP5BoardSC_, symObjAddr: 0x96F0, symBinAddr: 0x10000A3B0, symSize: 0x90 }
  - { offsetInCU: 0x15BC6, offset: 0x15BC6, size: 0x8, addend: 0x0, symName: __ZN5Timer13hasTimePassedEd, symObjAddr: 0x9780, symBinAddr: 0x10000A440, symSize: 0x80 }
  - { offsetInCU: 0x15C16, offset: 0x15C16, size: 0x8, addend: 0x0, symName: __ZN12InputHandler6aiMoveERbP6PlayerP5BoardRNSt3__15queueIP7CommandNS5_5dequeIS8_NS5_9allocatorIS8_EEEEEES2_, symObjAddr: 0x9800, symBinAddr: 0x10000A4C0, symSize: 0x9B0 }
  - { offsetInCU: 0x15D53, offset: 0x15D53, size: 0x8, addend: 0x0, symName: __ZN5BoardC1ERKS_, symObjAddr: 0xA1B0, symBinAddr: 0x10000AE70, symSize: 0x30 }
  - { offsetInCU: 0x15D88, offset: 0x15D88, size: 0x8, addend: 0x0, symName: __ZNKSt3__114priority_queueI7ElementNS_6vectorIS1_NS_9allocatorIS1_EEEE7CompareE5emptyB8ue170006Ev, symObjAddr: 0xA1E0, symBinAddr: 0x10000AEA0, symSize: 0x20 }
  - { offsetInCU: 0x15DAE, offset: 0x15DAE, size: 0x8, addend: 0x0, symName: __ZNKSt3__114priority_queueI7ElementNS_6vectorIS1_NS_9allocatorIS1_EEEE7CompareE3topB8ue170006Ev, symObjAddr: 0xA200, symBinAddr: 0x10000AEC0, symSize: 0x20 }
  - { offsetInCU: 0x15DD4, offset: 0x15DD4, size: 0x8, addend: 0x0, symName: __ZNSt3__16vectorI7ElementNS_9allocatorIS1_EEEC1B8ue170006Ev, symObjAddr: 0xA220, symBinAddr: 0x10000AEE0, symSize: 0x20 }
  - { offsetInCU: 0x15DFE, offset: 0x15DFE, size: 0x8, addend: 0x0, symName: __ZN7ElementC1ERKS_, symObjAddr: 0xA240, symBinAddr: 0x10000AF00, symSize: 0x30 }
  - { offsetInCU: 0x15E33, offset: 0x15E33, size: 0x8, addend: 0x0, symName: __ZNSt3__16vectorI7ElementNS_9allocatorIS1_EEE9push_backB8ue170006ERKS1_, symObjAddr: 0xA270, symBinAddr: 0x10000AF30, symSize: 0x60 }
  - { offsetInCU: 0x15E6A, offset: 0x15E6A, size: 0x8, addend: 0x0, symName: __ZNSt3__114priority_queueI7ElementNS_6vectorIS1_NS_9allocatorIS1_EEEE7CompareE3popEv, symObjAddr: 0xA2D0, symBinAddr: 0x10000AF90, symSize: 0x50 }
  - { offsetInCU: 0x15E92, offset: 0x15E92, size: 0x8, addend: 0x0, symName: __ZNSt3__16vectorI7ElementNS_9allocatorIS1_EEEixB8ue170006Em, symObjAddr: 0xA320, symBinAddr: 0x10000AFE0, symSize: 0x20 }
  - { offsetInCU: 0x15EC9, offset: 0x15EC9, size: 0x8, addend: 0x0, symName: __ZNSt3__16vectorI7ElementNS_9allocatorIS1_EEE5eraseB8ue170006ENS_11__wrap_iterIPKS1_EE, symObjAddr: 0xA340, symBinAddr: 0x10000B000, symSize: 0x90 }
  - { offsetInCU: 0x15F1E, offset: 0x15F1E, size: 0x8, addend: 0x0, symName: __ZNSt3__16vectorI7ElementNS_9allocatorIS1_EEE5beginB8ue170006Ev, symObjAddr: 0xA3D0, symBinAddr: 0x10000B090, symSize: 0x30 }
  - { offsetInCU: 0x15F46, offset: 0x15F46, size: 0x8, addend: 0x0, symName: __ZNKSt3__111__wrap_iterIP7ElementEplB8ue170006El, symObjAddr: 0xA400, symBinAddr: 0x10000B0C0, symSize: 0x40 }
  - { offsetInCU: 0x15F92, offset: 0x15F92, size: 0x8, addend: 0x0, symName: __ZNSt3__111__wrap_iterIPK7ElementEC1B8ue170006IPS1_EERKNS0_IT_EEPNS_9enable_ifIXsr14is_convertibleIS7_S3_EE5valueEvE4typeE, symObjAddr: 0xA440, symBinAddr: 0x10000B100, symSize: 0x30 }
  - { offsetInCU: 0x15FDD, offset: 0x15FDD, size: 0x8, addend: 0x0, symName: __ZNKSt3__16vectorI7ElementNS_9allocatorIS1_EEE5emptyB8ue170006Ev, symObjAddr: 0xA470, symBinAddr: 0x10000B130, symSize: 0x20 }
  - { offsetInCU: 0x16003, offset: 0x16003, size: 0x8, addend: 0x0, symName: __ZNSt3__114priority_queueI7ElementNS_6vectorIS1_NS_9allocatorIS1_EEEE7CompareE4pushERKS1_, symObjAddr: 0xA490, symBinAddr: 0x10000B150, symSize: 0x50 }
  - { offsetInCU: 0x1603A, offset: 0x1603A, size: 0x8, addend: 0x0, symName: __ZNSt3__16vectorI7ElementNS_9allocatorIS1_EEE5frontB8ue170006Ev, symObjAddr: 0xA4E0, symBinAddr: 0x10000B1A0, symSize: 0x20 }
  - { offsetInCU: 0x16060, offset: 0x16060, size: 0x8, addend: 0x0, symName: __ZN12InputHandler12validateMoveEP6PlayerP5BoardS1_, symObjAddr: 0xA500, symBinAddr: 0x10000B1C0, symSize: 0x5F0 }
  - { offsetInCU: 0x16100, offset: 0x16100, size: 0x8, addend: 0x0, symName: __ZNSt3__16vectorI7ElementNS_9allocatorIS1_EEED1B8ue170006Ev, symObjAddr: 0xAAF0, symBinAddr: 0x10000B7B0, symSize: 0x20 }
  - { offsetInCU: 0x1612A, offset: 0x1612A, size: 0x8, addend: 0x0, symName: __ZN5BoardD1Ev, symObjAddr: 0xAB10, symBinAddr: 0x10000B7D0, symSize: 0x20 }
  - { offsetInCU: 0x16156, offset: 0x16156, size: 0x8, addend: 0x0, symName: __ZNSt3__15queueIP7CommandNS_5dequeIS2_NS_9allocatorIS2_EEEEE4pushB8ue170006EOS2_, symObjAddr: 0xAB30, symBinAddr: 0x10000B7F0, symSize: 0x30 }
  - { offsetInCU: 0x162A3, offset: 0x162A3, size: 0x8, addend: 0x0, symName: __ZN16MovePieceCommandC1EP6PlayerP5Board, symObjAddr: 0xAB60, symBinAddr: 0x10000B820, symSize: 0x30 }
  - { offsetInCU: 0x162E9, offset: 0x162E9, size: 0x8, addend: 0x0, symName: __ZN12InputHandler12personSelectERbP6Player2xyP5Board, symObjAddr: 0xAB90, symBinAddr: 0x10000B850, symSize: 0x200 }
  - { offsetInCU: 0x16366, offset: 0x16366, size: 0x8, addend: 0x0, symName: __ZN5BoardC1ENSt3__112basic_stringIcNS0_11char_traitsIcEENS0_9allocatorIcEEEE, symObjAddr: 0xAD90, symBinAddr: 0x10000BA50, symSize: 0x20 }
  - { offsetInCU: 0x1639F, offset: 0x1639F, size: 0x8, addend: 0x0, symName: __ZNSt3__112basic_stringIcNS_11char_traitsIcEENS_9allocatorIcEEEaSB8ue170006EPKc, symObjAddr: 0xADB0, symBinAddr: 0x10000BA70, symSize: 0x30 }
  - { offsetInCU: 0x1644D, offset: 0x1644D, size: 0x8, addend: 0x0, symName: __ZN2UI4drawE6PlayerS0_5Board, symObjAddr: 0xADE0, symBinAddr: 0x10000BAA0, symSize: 0x150 }
  - { offsetInCU: 0x164A0, offset: 0x164A0, size: 0x8, addend: 0x0, symName: __ZN2UI7drawBarE5Board, symObjAddr: 0xAF30, symBinAddr: 0x10000BBF0, symSize: 0x1C0 }
  - { offsetInCU: 0x168E9, offset: 0x168E9, size: 0x8, addend: 0x0, symName: __ZN4Game12drawAIBattleEv, symObjAddr: 0xB0F0, symBinAddr: 0x10000BDB0, symSize: 0x80 }
  - { offsetInCU: 0x16910, offset: 0x16910, size: 0x8, addend: 0x0, symName: __ZN4Game9resetGameEv, symObjAddr: 0xB170, symBinAddr: 0x10000BE30, symSize: 0x150 }
  - { offsetInCU: 0x16937, offset: 0x16937, size: 0x8, addend: 0x0, symName: __ZN4Game14updateAIBattleE7Vector2, symObjAddr: 0xB2C0, symBinAddr: 0x10000BF80, symSize: 0xE0 }
  - { offsetInCU: 0x1696C, offset: 0x1696C, size: 0x8, addend: 0x0, symName: __ZN4Game8drawBackEv, symObjAddr: 0xB3A0, symBinAddr: 0x10000C060, symSize: 0x80 }
  - { offsetInCU: 0x16993, offset: 0x16993, size: 0x8, addend: 0x0, symName: __ZN4Game10updateBackE7Vector2, symObjAddr: 0xB420, symBinAddr: 0x10000C0E0, symSize: 0x80 }
  - { offsetInCU: 0x169C8, offset: 0x169C8, size: 0x8, addend: 0x0, symName: __ZN4Game13drawStartOverEv, symObjAddr: 0xB4A0, symBinAddr: 0x10000C160, symSize: 0xA0 }
  - { offsetInCU: 0x169EF, offset: 0x169EF, size: 0x8, addend: 0x0, symName: __ZN4Game15updateStartOverE7Vector2, symObjAddr: 0xB540, symBinAddr: 0x10000C200, symSize: 0x80 }
  - { offsetInCU: 0x16A24, offset: 0x16A24, size: 0x8, addend: 0x0, symName: __ZN4Game14updateGameOverE7Vector2, symObjAddr: 0xB5C0, symBinAddr: 0x10000C280, symSize: 0x80 }
  - { offsetInCU: 0x16A59, offset: 0x16A59, size: 0x8, addend: 0x0, symName: __ZN4Game6updateEv, symObjAddr: 0xB640, symBinAddr: 0x10000C300, symSize: 0x120 }
  - { offsetInCU: 0x16A8E, offset: 0x16A8E, size: 0x8, addend: 0x0, symName: __ZN4Game23updateSelectPlayerCountE7Vector2, symObjAddr: 0xB760, symBinAddr: 0x10000C420, symSize: 0x150 }
  - { offsetInCU: 0x16AC3, offset: 0x16AC3, size: 0x8, addend: 0x0, symName: __ZN4Game17updateSelectColorE7Vector2, symObjAddr: 0xB8B0, symBinAddr: 0x10000C570, symSize: 0x180 }
  - { offsetInCU: 0x16AF8, offset: 0x16AF8, size: 0x8, addend: 0x0, symName: __ZN4Game11updateBoardEv, symObjAddr: 0xBA30, symBinAddr: 0x10000C6F0, symSize: 0x250 }
  - { offsetInCU: 0x16B5A, offset: 0x16B5A, size: 0x8, addend: 0x0, symName: __ZNSt3__15stackIP7CommandNS_5dequeIS2_NS_9allocatorIS2_EEEEE4pushB8ue170006ERKS2_, symObjAddr: 0xBCD0, symBinAddr: 0x10000C990, symSize: 0x30 }
  - { offsetInCU: 0x16B8F, offset: 0x16B8F, size: 0x8, addend: 0x0, symName: __ZN4Game4drawEv, symObjAddr: 0xBD00, symBinAddr: 0x10000C9C0, symSize: 0x210 }
  - { offsetInCU: 0x16BB7, offset: 0x16BB7, size: 0x8, addend: 0x0, symName: __ZN4Game21drawSelectPlayerCountEv, symObjAddr: 0xBF10, symBinAddr: 0x10000CBD0, symSize: 0xC0 }
  - { offsetInCU: 0x16BEE, offset: 0x16BEE, size: 0x8, addend: 0x0, symName: __ZN4Game18drawColorSelectionEv, symObjAddr: 0xBFD0, symBinAddr: 0x10000CC90, symSize: 0x220 }
  - { offsetInCU: 0x16C44, offset: 0x16C44, size: 0x8, addend: 0x0, symName: __ZN4Game12drawGameOverEv, symObjAddr: 0xC1F0, symBinAddr: 0x10000CEB0, symSize: 0x420 }
  - { offsetInCU: 0x16CC6, offset: 0x16CC6, size: 0x8, addend: 0x0, symName: __ZN4Game6drawSPEv, symObjAddr: 0xC610, symBinAddr: 0x10000D2D0, symSize: 0xB0 }
  - { offsetInCU: 0x16CFD, offset: 0x16CFD, size: 0x8, addend: 0x0, symName: __ZN4Game6drawMPEv, symObjAddr: 0xC6C0, symBinAddr: 0x10000D380, symSize: 0xB0 }
  - { offsetInCU: 0x16D34, offset: 0x16D34, size: 0x8, addend: 0x0, symName: _main, symObjAddr: 0xC770, symBinAddr: 0x10000D430, symSize: 0x130 }
  - { offsetInCU: 0x16D60, offset: 0x16D60, size: 0x8, addend: 0x0, symName: __ZN4GameC1Ev, symObjAddr: 0xC8A0, symBinAddr: 0x10000D560, symSize: 0x20 }
  - { offsetInCU: 0x16D8A, offset: 0x16D8A, size: 0x8, addend: 0x0, symName: __ZN4GameD1Ev, symObjAddr: 0xC8C0, symBinAddr: 0x10000D580, symSize: 0x20 }
  - { offsetInCU: 0x16DB4, offset: 0x16DB4, size: 0x8, addend: 0x0, symName: __ZNSt3__18__iom_t6C1B8ue170006Ei, symObjAddr: 0xC8E0, symBinAddr: 0x10000D5A0, symSize: 0x30 }
  - { offsetInCU: 0x16DEC, offset: 0x16DEC, size: 0x8, addend: 0x0, symName: __ZNSt3__18__iom_t6C2B8ue170006Ei, symObjAddr: 0xC910, symBinAddr: 0x10000D5D0, symSize: 0x20 }
  - { offsetInCU: 0x16E24, offset: 0x16E24, size: 0x8, addend: 0x0, symName: __ZN4MoveC2ERKS_, symObjAddr: 0xC930, symBinAddr: 0x10000D5F0, symSize: 0x50 }
  - { offsetInCU: 0x16E59, offset: 0x16E59, size: 0x8, addend: 0x0, symName: __ZN7ElementD2Ev, symObjAddr: 0xC980, symBinAddr: 0x10000D640, symSize: 0x20 }
  - { offsetInCU: 0x16E85, offset: 0x16E85, size: 0x8, addend: 0x0, symName: __ZN4MoveD2Ev, symObjAddr: 0xC9A0, symBinAddr: 0x10000D660, symSize: 0x20 }
  - { offsetInCU: 0x16EB1, offset: 0x16EB1, size: 0x8, addend: 0x0, symName: __ZNSt3__114priority_queueI7ElementNS_6vectorIS1_NS_9allocatorIS1_EEEE7CompareED2Ev, symObjAddr: 0xC9C0, symBinAddr: 0x10000D680, symSize: 0x20 }
  - { offsetInCU: 0x16EDE, offset: 0x16EDE, size: 0x8, addend: 0x0, symName: __ZN6SquareC2Ev, symObjAddr: 0xC9E0, symBinAddr: 0x10000D6A0, symSize: 0x40 }
  - { offsetInCU: 0x16F08, offset: 0x16F08, size: 0x8, addend: 0x0, symName: __ZN6SquareD2Ev, symObjAddr: 0xCA20, symBinAddr: 0x10000D6E0, symSize: 0x20 }
  - { offsetInCU: 0x16F32, offset: 0x16F32, size: 0x8, addend: 0x0, symName: __ZN6SquareC2E5Color, symObjAddr: 0xCA40, symBinAddr: 0x10000D700, symSize: 0x80 }
  - { offsetInCU: 0x16F6A, offset: 0x16F6A, size: 0x8, addend: 0x0, symName: __ZN4MoveC2Ei2xyS0_RKNSt3__112basic_stringIcNS1_11char_traitsIcEENS1_9allocatorIcEEEE, symObjAddr: 0xCAC0, symBinAddr: 0x10000D780, symSize: 0x50 }
  - { offsetInCU: 0x16FCC, offset: 0x16FCC, size: 0x8, addend: 0x0, symName: __ZN6PlayerC2Ebc, symObjAddr: 0xCB10, symBinAddr: 0x10000D7D0, symSize: 0xB0 }
  - { offsetInCU: 0x17012, offset: 0x17012, size: 0x8, addend: 0x0, symName: __ZN5TimerC1Ev, symObjAddr: 0xCBC0, symBinAddr: 0x10000D880, symSize: 0x20 }
  - { offsetInCU: 0x1703C, offset: 0x1703C, size: 0x8, addend: 0x0, symName: __ZN5TimerC2Ev, symObjAddr: 0xCBE0, symBinAddr: 0x10000D8A0, symSize: 0x30 }
  - { offsetInCU: 0x17066, offset: 0x17066, size: 0x8, addend: 0x0, symName: __ZNSt3__16chrono8durationIdNS_5ratioILl1ELl1EEEEC1B8ue170006IxNS2_ILl1ELl1000000000EEEEERKNS1_IT_T0_EEPNS_9enable_ifIXaasr13__no_overflowIS8_S3_EE5valueooL_ZNS_17integral_constantIbLb1EE5valueEEaaeqsr13__no_overflowIS8_S3_E4typeE3denLi1Entsr23treat_as_floating_pointIS7_EE5valueEvE4typeE, symObjAddr: 0xCC60, symBinAddr: 0x10000D920, symSize: 0x30 }
  - { offsetInCU: 0x170BD, offset: 0x170BD, size: 0x8, addend: 0x0, symName: __ZNKSt3__16chrono8durationIdNS_5ratioILl1ELl1EEEE5countB8ue170006Ev, symObjAddr: 0xCC90, symBinAddr: 0x10000D950, symSize: 0x20 }
  - { offsetInCU: 0x170E3, offset: 0x170E3, size: 0x8, addend: 0x0, symName: __ZNKSt3__16chrono10time_pointINS0_12steady_clockENS0_8durationIxNS_5ratioILl1ELl1000000000EEEEEE16time_since_epochB8ue170006Ev, symObjAddr: 0xCD20, symBinAddr: 0x10000D9E0, symSize: 0x20 }
  - { offsetInCU: 0x17109, offset: 0x17109, size: 0x8, addend: 0x0, symName: __ZNKSt3__16chrono8durationIxNS_5ratioILl1ELl1000000000EEEE5countB8ue170006Ev, symObjAddr: 0xCD40, symBinAddr: 0x10000DA00, symSize: 0x20 }
  - { offsetInCU: 0x17139, offset: 0x17139, size: 0x8, addend: 0x0, symName: __ZNSt3__16chrono8durationIxNS_5ratioILl1ELl1000000000EEEEC1B8ue170006IxEERKT_PNS_9enable_ifIXaasr14is_convertibleIS8_xEE5valueooL_ZNS_17integral_constantIbLb0EE5valueEEntsr23treat_as_floating_pointIS6_EE5valueEvE4typeE, symObjAddr: 0xCD60, symBinAddr: 0x10000DA20, symSize: 0x30 }
  - { offsetInCU: 0x17186, offset: 0x17186, size: 0x8, addend: 0x0, symName: __ZNSt3__16chrono8durationIxNS_5ratioILl1ELl1000000000EEEEC2B8ue170006IxEERKT_PNS_9enable_ifIXaasr14is_convertibleIS8_xEE5valueooL_ZNS_17integral_constantIbLb0EE5valueEEntsr23treat_as_floating_pointIS6_EE5valueEvE4typeE, symObjAddr: 0xCD90, symBinAddr: 0x10000DA50, symSize: 0x20 }
  - { offsetInCU: 0x171D3, offset: 0x171D3, size: 0x8, addend: 0x0, symName: __ZNSt3__16chrono8durationIdNS_5ratioILl1ELl1EEEEC2B8ue170006IxNS2_ILl1ELl1000000000EEEEERKNS1_IT_T0_EEPNS_9enable_ifIXaasr13__no_overflowIS8_S3_EE5valueooL_ZNS_17integral_constantIbLb1EE5valueEEaaeqsr13__no_overflowIS8_S3_E4typeE3denLi1Entsr23treat_as_floating_pointIS7_EE5valueEvE4typeE, symObjAddr: 0xCDB0, symBinAddr: 0x10000DA70, symSize: 0x50 }
  - { offsetInCU: 0x17234, offset: 0x17234, size: 0x8, addend: 0x0, symName: __ZNSt3__16chrono8durationIdNS_5ratioILl1ELl1EEEEC1B8ue170006IdEERKT_PNS_9enable_ifIXaasr14is_convertibleIS8_dEE5valueooL_ZNS_17integral_constantIbLb1EE5valueEEntsr23treat_as_floating_pointIS6_EE5valueEvE4typeE, symObjAddr: 0xCE80, symBinAddr: 0x10000DB40, symSize: 0x30 }
  - { offsetInCU: 0x17281, offset: 0x17281, size: 0x8, addend: 0x0, symName: __ZNSt3__16chrono8durationIdNS_5ratioILl1ELl1EEEEC2B8ue170006IdEERKT_PNS_9enable_ifIXaasr14is_convertibleIS8_dEE5valueooL_ZNS_17integral_constantIbLb1EE5valueEEntsr23treat_as_floating_pointIS6_EE5valueEvE4typeE, symObjAddr: 0xCEB0, symBinAddr: 0x10000DB70, symSize: 0x30 }
  - { offsetInCU: 0x172CE, offset: 0x172CE, size: 0x8, addend: 0x0, symName: __ZN5BoardC2ERKS_, symObjAddr: 0xCEE0, symBinAddr: 0x10000DBA0, symSize: 0x380 }
  - { offsetInCU: 0x17303, offset: 0x17303, size: 0x8, addend: 0x0, symName: __ZN6SquareC1ERKS_, symObjAddr: 0xD260, symBinAddr: 0x10000DF20, symSize: 0x30 }
  - { offsetInCU: 0x17338, offset: 0x17338, size: 0x8, addend: 0x0, symName: __ZNSt3__16vectorI4MoveNS_9allocatorIS1_EEEC1ERKS4_, symObjAddr: 0xD290, symBinAddr: 0x10000DF50, symSize: 0x30 }
  - { offsetInCU: 0x17373, offset: 0x17373, size: 0x8, addend: 0x0, symName: __ZN6SquareC2ERKS_, symObjAddr: 0xD2C0, symBinAddr: 0x10000DF80, symSize: 0x50 }
  - { offsetInCU: 0x173A8, offset: 0x173A8, size: 0x8, addend: 0x0, symName: __ZNSt3__16vectorI4MoveNS_9allocatorIS1_EEEC2ERKS4_, symObjAddr: 0xD310, symBinAddr: 0x10000DFD0, symSize: 0xA0 }
  - { offsetInCU: 0x173ED, offset: 0x173ED, size: 0x8, addend: 0x0, symName: __ZNSt3__116allocator_traitsINS_9allocatorI4MoveEEE37select_on_container_copy_constructionB8ue170006IS3_vvEES3_RKS3_, symObjAddr: 0xD3B0, symBinAddr: 0x10000E070, symSize: 0x10 }
  - { offsetInCU: 0x1741C, offset: 0x1741C, size: 0x8, addend: 0x0, symName: __ZNKSt3__16vectorI4MoveNS_9allocatorIS1_EEE7__allocB8ue170006Ev, symObjAddr: 0xD3C0, symBinAddr: 0x10000E080, symSize: 0x20 }
  - { offsetInCU: 0x1744C, offset: 0x1744C, size: 0x8, addend: 0x0, symName: __ZNSt3__117__compressed_pairIP4MoveNS_9allocatorIS1_EEEC1B8ue170006IDnS4_EEOT_OT0_, symObjAddr: 0xD3E0, symBinAddr: 0x10000E0A0, symSize: 0x30 }
  - { offsetInCU: 0x174A4, offset: 0x174A4, size: 0x8, addend: 0x0, symName: __ZNSt3__16vectorI4MoveNS_9allocatorIS1_EEE16__init_with_sizeB8ue170006IPS1_S6_EEvT_T0_m, symObjAddr: 0xD410, symBinAddr: 0x10000E0D0, symSize: 0xB0 }
  - { offsetInCU: 0x17518, offset: 0x17518, size: 0x8, addend: 0x0, symName: __ZNKSt3__16vectorI4MoveNS_9allocatorIS1_EEE4sizeB8ue170006Ev, symObjAddr: 0xD4C0, symBinAddr: 0x10000E180, symSize: 0x30 }
  - { offsetInCU: 0x1753E, offset: 0x1753E, size: 0x8, addend: 0x0, symName: __ZNKSt3__117__compressed_pairIP4MoveNS_9allocatorIS1_EEE6secondB8ue170006Ev, symObjAddr: 0xD4F0, symBinAddr: 0x10000E1B0, symSize: 0x20 }
  - { offsetInCU: 0x17564, offset: 0x17564, size: 0x8, addend: 0x0, symName: __ZNKSt3__122__compressed_pair_elemINS_9allocatorI4MoveEELi1ELb1EE5__getB8ue170006Ev, symObjAddr: 0xD510, symBinAddr: 0x10000E1D0, symSize: 0x10 }
  - { offsetInCU: 0x1758A, offset: 0x1758A, size: 0x8, addend: 0x0, symName: __ZNSt3__117__compressed_pairIP4MoveNS_9allocatorIS1_EEEC2B8ue170006IDnS4_EEOT_OT0_, symObjAddr: 0xD520, symBinAddr: 0x10000E1E0, symSize: 0x40 }
  - { offsetInCU: 0x175E2, offset: 0x175E2, size: 0x8, addend: 0x0, symName: __ZNSt3__122__compressed_pair_elemIP4MoveLi0ELb0EEC2B8ue170006IDnvEEOT_, symObjAddr: 0xD560, symBinAddr: 0x10000E220, symSize: 0x20 }
  - { offsetInCU: 0x17624, offset: 0x17624, size: 0x8, addend: 0x0, symName: __ZNSt3__122__compressed_pair_elemINS_9allocatorI4MoveEELi1ELb1EEC2B8ue170006IS3_vEEOT_, symObjAddr: 0xD580, symBinAddr: 0x10000E240, symSize: 0x10 }
  - { offsetInCU: 0x17666, offset: 0x17666, size: 0x8, addend: 0x0, symName: __ZNSt3__16vectorI4MoveNS_9allocatorIS1_EEE16__destroy_vectorC1B8ue170006ERS4_, symObjAddr: 0xD5D0, symBinAddr: 0x10000E290, symSize: 0x30 }
  - { offsetInCU: 0x1769F, offset: 0x1769F, size: 0x8, addend: 0x0, symName: __ZNSt3__16vectorI4MoveNS_9allocatorIS1_EEE11__vallocateB8ue170006Em, symObjAddr: 0xD600, symBinAddr: 0x10000E2C0, symSize: 0xA0 }
  - { offsetInCU: 0x176E3, offset: 0x176E3, size: 0x8, addend: 0x0, symName: __ZNSt3__16vectorI4MoveNS_9allocatorIS1_EEE18__construct_at_endIPS1_S6_EEvT_T0_m, symObjAddr: 0xD6A0, symBinAddr: 0x10000E360, symSize: 0x90 }
  - { offsetInCU: 0x17759, offset: 0x17759, size: 0x8, addend: 0x0, symName: __ZNSt3__128__exception_guard_exceptionsINS_6vectorI4MoveNS_9allocatorIS2_EEE16__destroy_vectorEE10__completeB8ue170006Ev, symObjAddr: 0xD730, symBinAddr: 0x10000E3F0, symSize: 0x20 }
  - { offsetInCU: 0x1777F, offset: 0x1777F, size: 0x8, addend: 0x0, symName: __ZNSt3__128__exception_guard_exceptionsINS_6vectorI4MoveNS_9allocatorIS2_EEE16__destroy_vectorEED1B8ue170006Ev, symObjAddr: 0xD750, symBinAddr: 0x10000E410, symSize: 0x20 }
  - { offsetInCU: 0x177A9, offset: 0x177A9, size: 0x8, addend: 0x0, symName: __ZNSt3__128__exception_guard_exceptionsINS_6vectorI4MoveNS_9allocatorIS2_EEE16__destroy_vectorEEC1B8ue170006ES6_, symObjAddr: 0xD770, symBinAddr: 0x10000E430, symSize: 0x30 }
  - { offsetInCU: 0x177E1, offset: 0x177E1, size: 0x8, addend: 0x0, symName: __ZNSt3__128__exception_guard_exceptionsINS_6vectorI4MoveNS_9allocatorIS2_EEE16__destroy_vectorEEC2B8ue170006ES6_, symObjAddr: 0xD7A0, symBinAddr: 0x10000E460, symSize: 0x20 }
  - { offsetInCU: 0x17819, offset: 0x17819, size: 0x8, addend: 0x0, symName: __ZNSt3__16vectorI4MoveNS_9allocatorIS1_EEE16__destroy_vectorC2B8ue170006ERS4_, symObjAddr: 0xD7C0, symBinAddr: 0x10000E480, symSize: 0x20 }
  - { offsetInCU: 0x17852, offset: 0x17852, size: 0x8, addend: 0x0, symName: __ZNKSt3__16vectorI4MoveNS_9allocatorIS1_EEE8max_sizeEv, symObjAddr: 0xD7E0, symBinAddr: 0x10000E4A0, symSize: 0x60 }
  - { offsetInCU: 0x1787A, offset: 0x1787A, size: 0x8, addend: 0x0, symName: __ZNKSt3__16vectorI4MoveNS_9allocatorIS1_EEE20__throw_length_errorB8ue170006Ev, symObjAddr: 0xD840, symBinAddr: 0x10000E500, symSize: 0x20 }
  - { offsetInCU: 0x178A0, offset: 0x178A0, size: 0x8, addend: 0x0, symName: __ZNSt3__16vectorI4MoveNS_9allocatorIS1_EEE7__allocB8ue170006Ev, symObjAddr: 0xD8A0, symBinAddr: 0x10000E560, symSize: 0x20 }
  - { offsetInCU: 0x178C6, offset: 0x178C6, size: 0x8, addend: 0x0, symName: __ZNSt3__16vectorI4MoveNS_9allocatorIS1_EEE9__end_capB8ue170006Ev, symObjAddr: 0xD8C0, symBinAddr: 0x10000E580, symSize: 0x20 }
  - { offsetInCU: 0x178EC, offset: 0x178EC, size: 0x8, addend: 0x0, symName: __ZNKSt3__16vectorI4MoveNS_9allocatorIS1_EEE14__annotate_newB8ue170006Em, symObjAddr: 0xD8E0, symBinAddr: 0x10000E5A0, symSize: 0xA0 }
  - { offsetInCU: 0x17921, offset: 0x17921, size: 0x8, addend: 0x0, symName: __ZNSt3__116allocator_traitsINS_9allocatorI4MoveEEE8max_sizeB8ue170006IS3_vEEmRKS3_, symObjAddr: 0xD9B0, symBinAddr: 0x10000E670, symSize: 0x20 }
  - { offsetInCU: 0x1794F, offset: 0x1794F, size: 0x8, addend: 0x0, symName: __ZNSt3__114numeric_limitsIlE3maxB8ue170006Ev, symObjAddr: 0xD9D0, symBinAddr: 0x10000E690, symSize: 0x10 }
  - { offsetInCU: 0x1796D, offset: 0x1796D, size: 0x8, addend: 0x0, symName: __ZNKSt3__16__lessIvvEclB8ue170006ImmEEbRKT_RKT0_, symObjAddr: 0xDA40, symBinAddr: 0x10000E700, symSize: 0x30 }
  - { offsetInCU: 0x179C1, offset: 0x179C1, size: 0x8, addend: 0x0, symName: __ZNKSt3__19allocatorI4MoveE8max_sizeB8ue170006Ev, symObjAddr: 0xDA70, symBinAddr: 0x10000E730, symSize: 0x20 }
  - { offsetInCU: 0x179E7, offset: 0x179E7, size: 0x8, addend: 0x0, symName: __ZNSt3__123__libcpp_numeric_limitsIlLb1EE3maxB8ue170006Ev, symObjAddr: 0xDA90, symBinAddr: 0x10000E750, symSize: 0x10 }
  - { offsetInCU: 0x179FB, offset: 0x179FB, size: 0x8, addend: 0x0, symName: __ZNSt12length_errorC1B8ue170006EPKc, symObjAddr: 0xDB10, symBinAddr: 0x10000E7D0, symSize: 0x30 }
  - { offsetInCU: 0x17A33, offset: 0x17A33, size: 0x8, addend: 0x0, symName: __ZNSt12length_errorC2B8ue170006EPKc, symObjAddr: 0xDB40, symBinAddr: 0x10000E800, symSize: 0x40 }
  - { offsetInCU: 0x17A6B, offset: 0x17A6B, size: 0x8, addend: 0x0, symName: __ZNSt3__19allocatorI4MoveE8allocateB8ue170006Em, symObjAddr: 0xDB80, symBinAddr: 0x10000E840, symSize: 0x50 }
  - { offsetInCU: 0x17A9F, offset: 0x17A9F, size: 0x8, addend: 0x0, symName: __ZNSt3__117__compressed_pairIP4MoveNS_9allocatorIS1_EEE6secondB8ue170006Ev, symObjAddr: 0xDC50, symBinAddr: 0x10000E910, symSize: 0x20 }
  - { offsetInCU: 0x17AC5, offset: 0x17AC5, size: 0x8, addend: 0x0, symName: __ZNSt3__122__compressed_pair_elemINS_9allocatorI4MoveEELi1ELb1EE5__getB8ue170006Ev, symObjAddr: 0xDC70, symBinAddr: 0x10000E930, symSize: 0x10 }
  - { offsetInCU: 0x17AEB, offset: 0x17AEB, size: 0x8, addend: 0x0, symName: __ZNSt3__117__compressed_pairIP4MoveNS_9allocatorIS1_EEE5firstB8ue170006Ev, symObjAddr: 0xDC80, symBinAddr: 0x10000E940, symSize: 0x20 }
  - { offsetInCU: 0x17B11, offset: 0x17B11, size: 0x8, addend: 0x0, symName: __ZNSt3__122__compressed_pair_elemIP4MoveLi0ELb0EE5__getB8ue170006Ev, symObjAddr: 0xDCA0, symBinAddr: 0x10000E960, symSize: 0x10 }
  - { offsetInCU: 0x17B37, offset: 0x17B37, size: 0x8, addend: 0x0, symName: __ZNKSt3__16vectorI4MoveNS_9allocatorIS1_EEE31__annotate_contiguous_containerB8ue170006EPKvS6_S6_S6_, symObjAddr: 0xDCB0, symBinAddr: 0x10000E970, symSize: 0x20 }
  - { offsetInCU: 0x17B8D, offset: 0x17B8D, size: 0x8, addend: 0x0, symName: __ZNKSt3__16vectorI4MoveNS_9allocatorIS1_EEE4dataB8ue170006Ev, symObjAddr: 0xDCD0, symBinAddr: 0x10000E990, symSize: 0x20 }
  - { offsetInCU: 0x17BB3, offset: 0x17BB3, size: 0x8, addend: 0x0, symName: __ZNKSt3__16vectorI4MoveNS_9allocatorIS1_EEE8capacityB8ue170006Ev, symObjAddr: 0xDCF0, symBinAddr: 0x10000E9B0, symSize: 0x40 }
  - { offsetInCU: 0x17BD9, offset: 0x17BD9, size: 0x8, addend: 0x0, symName: __ZNKSt3__16vectorI4MoveNS_9allocatorIS1_EEE9__end_capB8ue170006Ev, symObjAddr: 0xDD40, symBinAddr: 0x10000EA00, symSize: 0x20 }
  - { offsetInCU: 0x17BFF, offset: 0x17BFF, size: 0x8, addend: 0x0, symName: __ZNKSt3__117__compressed_pairIP4MoveNS_9allocatorIS1_EEE5firstB8ue170006Ev, symObjAddr: 0xDD60, symBinAddr: 0x10000EA20, symSize: 0x20 }
  - { offsetInCU: 0x17C25, offset: 0x17C25, size: 0x8, addend: 0x0, symName: __ZNKSt3__122__compressed_pair_elemIP4MoveLi0ELb0EE5__getB8ue170006Ev, symObjAddr: 0xDD80, symBinAddr: 0x10000EA40, symSize: 0x10 }
  - { offsetInCU: 0x17C64, offset: 0x17C64, size: 0x8, addend: 0x0, symName: __ZNSt3__16vectorI4MoveNS_9allocatorIS1_EEE21_ConstructTransactionC1B8ue170006ERS4_m, symObjAddr: 0xDD90, symBinAddr: 0x10000EA50, symSize: 0x30 }
  - { offsetInCU: 0x17CAC, offset: 0x17CAC, size: 0x8, addend: 0x0, symName: __ZNSt3__16vectorI4MoveNS_9allocatorIS1_EEE21_ConstructTransactionD1B8ue170006Ev, symObjAddr: 0xDE40, symBinAddr: 0x10000EB00, symSize: 0x20 }
  - { offsetInCU: 0x17CD6, offset: 0x17CD6, size: 0x8, addend: 0x0, symName: __ZNSt3__16vectorI4MoveNS_9allocatorIS1_EEE21_ConstructTransactionC2B8ue170006ERS4_m, symObjAddr: 0xDE60, symBinAddr: 0x10000EB20, symSize: 0x40 }
  - { offsetInCU: 0x17D3C, offset: 0x17D3C, size: 0x8, addend: 0x0, symName: __ZNSt3__14pairIP4MoveS2_EC1B8ue170006IS2_S2_LPv0EEEOT_OT0_, symObjAddr: 0xE080, symBinAddr: 0x10000ED40, symSize: 0x30 }
  - { offsetInCU: 0x17D9A, offset: 0x17D9A, size: 0x8, addend: 0x0, symName: __ZNSt3__14pairIP4MoveS2_EC2B8ue170006IS2_S2_LPv0EEEOT_OT0_, symObjAddr: 0xE0B0, symBinAddr: 0x10000ED70, symSize: 0x30 }
  - { offsetInCU: 0x17DF8, offset: 0x17DF8, size: 0x8, addend: 0x0, symName: __ZNSt3__129_AllocatorDestroyRangeReverseINS_9allocatorI4MoveEEPS2_EC1B8ue170006ERS3_RS4_S7_, symObjAddr: 0xE140, symBinAddr: 0x10000EE00, symSize: 0x40 }
  - { offsetInCU: 0x17E4F, offset: 0x17E4F, size: 0x8, addend: 0x0, symName: __ZNSt3__116allocator_traitsINS_9allocatorI4MoveEEE9constructB8ue170006IS2_JRS2_EvEEvRS3_PT_DpOT0_, symObjAddr: 0xE180, symBinAddr: 0x10000EE40, symSize: 0x30 }
  - { offsetInCU: 0x17EA6, offset: 0x17EA6, size: 0x8, addend: 0x0, symName: __ZNSt3__128__exception_guard_exceptionsINS_29_AllocatorDestroyRangeReverseINS_9allocatorI4MoveEEPS3_EEE10__completeB8ue170006Ev, symObjAddr: 0xE1B0, symBinAddr: 0x10000EE70, symSize: 0x20 }
  - { offsetInCU: 0x17ECC, offset: 0x17ECC, size: 0x8, addend: 0x0, symName: __ZNSt3__128__exception_guard_exceptionsINS_29_AllocatorDestroyRangeReverseINS_9allocatorI4MoveEEPS3_EEED1B8ue170006Ev, symObjAddr: 0xE1D0, symBinAddr: 0x10000EE90, symSize: 0x20 }
  - { offsetInCU: 0x17EF6, offset: 0x17EF6, size: 0x8, addend: 0x0, symName: __ZNSt3__128__exception_guard_exceptionsINS_29_AllocatorDestroyRangeReverseINS_9allocatorI4MoveEEPS3_EEEC1B8ue170006ES6_, symObjAddr: 0xE1F0, symBinAddr: 0x10000EEB0, symSize: 0x40 }
  - { offsetInCU: 0x17F2E, offset: 0x17F2E, size: 0x8, addend: 0x0, symName: __ZNSt3__128__exception_guard_exceptionsINS_29_AllocatorDestroyRangeReverseINS_9allocatorI4MoveEEPS3_EEEC2B8ue170006ES6_, symObjAddr: 0xE230, symBinAddr: 0x10000EEF0, symSize: 0x30 }
  - { offsetInCU: 0x17F66, offset: 0x17F66, size: 0x8, addend: 0x0, symName: __ZNSt3__129_AllocatorDestroyRangeReverseINS_9allocatorI4MoveEEPS2_EC2B8ue170006ERS3_RS4_S7_, symObjAddr: 0xE260, symBinAddr: 0x10000EF20, symSize: 0x40 }
  - { offsetInCU: 0x17FBD, offset: 0x17FBD, size: 0x8, addend: 0x0, symName: __ZNSt3__19allocatorI4MoveE9constructB8ue170006IS1_JRS1_EEEvPT_DpOT0_, symObjAddr: 0xE2A0, symBinAddr: 0x10000EF60, symSize: 0x30 }
  - { offsetInCU: 0x18013, offset: 0x18013, size: 0x8, addend: 0x0, symName: __ZNSt3__128__exception_guard_exceptionsINS_29_AllocatorDestroyRangeReverseINS_9allocatorI4MoveEEPS3_EEED2B8ue170006Ev, symObjAddr: 0xE2D0, symBinAddr: 0x10000EF90, symSize: 0x40 }
  - { offsetInCU: 0x1803D, offset: 0x1803D, size: 0x8, addend: 0x0, symName: __ZNKSt3__129_AllocatorDestroyRangeReverseINS_9allocatorI4MoveEEPS2_EclB8ue170006Ev, symObjAddr: 0xE310, symBinAddr: 0x10000EFD0, symSize: 0x60 }
  - { offsetInCU: 0x18063, offset: 0x18063, size: 0x8, addend: 0x0, symName: __ZNSt3__116reverse_iteratorIP4MoveEC1B8ue170006ES2_, symObjAddr: 0xE3E0, symBinAddr: 0x10000F0A0, symSize: 0x30 }
  - { offsetInCU: 0x1809B, offset: 0x1809B, size: 0x8, addend: 0x0, symName: __ZNSt3__116allocator_traitsINS_9allocatorI4MoveEEE7destroyB8ue170006IS2_vEEvRS3_PT_, symObjAddr: 0xE450, symBinAddr: 0x10000F110, symSize: 0x30 }
  - { offsetInCU: 0x180D8, offset: 0x180D8, size: 0x8, addend: 0x0, symName: __ZNSt3__116reverse_iteratorIP4MoveEppB8ue170006Ev, symObjAddr: 0xE4A0, symBinAddr: 0x10000F160, symSize: 0x20 }
  - { offsetInCU: 0x180FE, offset: 0x180FE, size: 0x8, addend: 0x0, symName: __ZNKSt3__116reverse_iteratorIP4MoveE4baseB8ue170006Ev, symObjAddr: 0xE4C0, symBinAddr: 0x10000F180, symSize: 0x20 }
  - { offsetInCU: 0x18124, offset: 0x18124, size: 0x8, addend: 0x0, symName: __ZNSt3__19allocatorI4MoveE7destroyB8ue170006EPS1_, symObjAddr: 0xE4E0, symBinAddr: 0x10000F1A0, symSize: 0x20 }
  - { offsetInCU: 0x1815D, offset: 0x1815D, size: 0x8, addend: 0x0, symName: __ZNSt3__119__to_address_helperINS_16reverse_iteratorIP4MoveEEvE6__callB8ue170006ERKS4_, symObjAddr: 0xE500, symBinAddr: 0x10000F1C0, symSize: 0x40 }
  - { offsetInCU: 0x18180, offset: 0x18180, size: 0x8, addend: 0x0, symName: __ZNKSt3__116reverse_iteratorIP4MoveEptB8ue170006Ev, symObjAddr: 0xE540, symBinAddr: 0x10000F200, symSize: 0x20 }
  - { offsetInCU: 0x181A6, offset: 0x181A6, size: 0x8, addend: 0x0, symName: __ZNKSt3__116reverse_iteratorIP4MoveEdeB8ue170006Ev, symObjAddr: 0xE560, symBinAddr: 0x10000F220, symSize: 0x30 }
  - { offsetInCU: 0x181DA, offset: 0x181DA, size: 0x8, addend: 0x0, symName: __ZNSt3__116reverse_iteratorIP4MoveEC2B8ue170006ES2_, symObjAddr: 0xE590, symBinAddr: 0x10000F250, symSize: 0x30 }
  - { offsetInCU: 0x18212, offset: 0x18212, size: 0x8, addend: 0x0, symName: __ZNSt3__118__unwrap_iter_implIP4MoveLb1EE8__unwrapB8ue170006ES2_, symObjAddr: 0xE5C0, symBinAddr: 0x10000F280, symSize: 0x20 }
  - { offsetInCU: 0x18235, offset: 0x18235, size: 0x8, addend: 0x0, symName: __ZNSt3__118__unwrap_iter_implIP4MoveLb1EE8__rewrapB8ue170006ES2_S2_, symObjAddr: 0xE5E0, symBinAddr: 0x10000F2A0, symSize: 0x60 }
  - { offsetInCU: 0x18266, offset: 0x18266, size: 0x8, addend: 0x0, symName: __ZNSt3__16vectorI4MoveNS_9allocatorIS1_EEE21_ConstructTransactionD2B8ue170006Ev, symObjAddr: 0xE640, symBinAddr: 0x10000F300, symSize: 0x20 }
  - { offsetInCU: 0x18290, offset: 0x18290, size: 0x8, addend: 0x0, symName: __ZNSt3__128__exception_guard_exceptionsINS_6vectorI4MoveNS_9allocatorIS2_EEE16__destroy_vectorEED2B8ue170006Ev, symObjAddr: 0xE660, symBinAddr: 0x10000F320, symSize: 0x40 }
  - { offsetInCU: 0x182BA, offset: 0x182BA, size: 0x8, addend: 0x0, symName: __ZNSt3__16vectorI4MoveNS_9allocatorIS1_EEE16__destroy_vectorclB8ue170006Ev, symObjAddr: 0xE6A0, symBinAddr: 0x10000F360, symSize: 0x80 }
  - { offsetInCU: 0x182E0, offset: 0x182E0, size: 0x8, addend: 0x0, symName: __ZNSt3__16vectorI4MoveNS_9allocatorIS1_EEE7__clearB8ue170006Ev, symObjAddr: 0xE720, symBinAddr: 0x10000F3E0, symSize: 0x20 }
  - { offsetInCU: 0x18306, offset: 0x18306, size: 0x8, addend: 0x0, symName: __ZNKSt3__16vectorI4MoveNS_9allocatorIS1_EEE17__annotate_deleteB8ue170006Ev, symObjAddr: 0xE740, symBinAddr: 0x10000F400, symSize: 0xB0 }
  - { offsetInCU: 0x1832C, offset: 0x1832C, size: 0x8, addend: 0x0, symName: __ZNSt3__116allocator_traitsINS_9allocatorI4MoveEEE10deallocateB8ue170006ERS3_PS2_m, symObjAddr: 0xE7F0, symBinAddr: 0x10000F4B0, symSize: 0x30 }
  - { offsetInCU: 0x1836E, offset: 0x1836E, size: 0x8, addend: 0x0, symName: __ZNSt3__16vectorI4MoveNS_9allocatorIS1_EEE22__base_destruct_at_endB8ue170006EPS1_, symObjAddr: 0xE820, symBinAddr: 0x10000F4E0, symSize: 0x80 }
  - { offsetInCU: 0x183B2, offset: 0x183B2, size: 0x8, addend: 0x0, symName: __ZNSt3__19allocatorI4MoveE10deallocateB8ue170006EPS1_m, symObjAddr: 0xE8A0, symBinAddr: 0x10000F560, symSize: 0x50 }
  - { offsetInCU: 0x183F4, offset: 0x183F4, size: 0x8, addend: 0x0, symName: __ZN7ElementC2ERKS_, symObjAddr: 0xE960, symBinAddr: 0x10000F620, symSize: 0x50 }
  - { offsetInCU: 0x18429, offset: 0x18429, size: 0x8, addend: 0x0, symName: __ZN5BoardD2Ev, symObjAddr: 0xE9B0, symBinAddr: 0x10000F670, symSize: 0xA0 }
  - { offsetInCU: 0x18455, offset: 0x18455, size: 0x8, addend: 0x0, symName: __ZN16MovePieceCommandC2EP6PlayerP5Board, symObjAddr: 0xEA50, symBinAddr: 0x10000F710, symSize: 0x310 }
  - { offsetInCU: 0x184B0, offset: 0x184B0, size: 0x8, addend: 0x0, symName: __ZN7CommandC2Ev, symObjAddr: 0xED60, symBinAddr: 0x10000FA20, symSize: 0x20 }
  - { offsetInCU: 0x184DC, offset: 0x184DC, size: 0x8, addend: 0x0, symName: __ZNSt3__112basic_stringIcNS_11char_traitsIcEENS_9allocatorIcEEEC1B8ue170006Ev, symObjAddr: 0xED80, symBinAddr: 0x10000FA40, symSize: 0x20 }
  - { offsetInCU: 0x18506, offset: 0x18506, size: 0x8, addend: 0x0, symName: __ZNSt3__112basic_stringIcNS_11char_traitsIcEENS_9allocatorIcEEEaSB8ue170006EOS5_, symObjAddr: 0xEDA0, symBinAddr: 0x10000FA60, symSize: 0x30 }
  - { offsetInCU: 0x1853B, offset: 0x1853B, size: 0x8, addend: 0x0, symName: __ZN7CommandD2Ev, symObjAddr: 0xEE50, symBinAddr: 0x10000FB10, symSize: 0x10 }
  - { offsetInCU: 0x18565, offset: 0x18565, size: 0x8, addend: 0x0, symName: __ZN16MovePieceCommandD1Ev, symObjAddr: 0xEE60, symBinAddr: 0x10000FB20, symSize: 0x20 }
  - { offsetInCU: 0x1858F, offset: 0x1858F, size: 0x8, addend: 0x0, symName: __ZN16MovePieceCommandD0Ev, symObjAddr: 0xEE80, symBinAddr: 0x10000FB40, symSize: 0x30 }
  - { offsetInCU: 0x185B9, offset: 0x185B9, size: 0x8, addend: 0x0, symName: __ZN16MovePieceCommand7executeEv, symObjAddr: 0xEEB0, symBinAddr: 0x10000FB70, symSize: 0x1E0 }
  - { offsetInCU: 0x185ED, offset: 0x185ED, size: 0x8, addend: 0x0, symName: __ZN16MovePieceCommand4undoEv, symObjAddr: 0xF090, symBinAddr: 0x10000FD50, symSize: 0x1A0 }
  - { offsetInCU: 0x18613, offset: 0x18613, size: 0x8, addend: 0x0, symName: __ZN7CommandD1Ev, symObjAddr: 0xF230, symBinAddr: 0x10000FEF0, symSize: 0x10 }
  - { offsetInCU: 0x1863D, offset: 0x1863D, size: 0x8, addend: 0x0, symName: __ZN7CommandD0Ev, symObjAddr: 0xF240, symBinAddr: 0x10000FF00, symSize: 0x10 }
  - { offsetInCU: 0x18667, offset: 0x18667, size: 0x8, addend: 0x0, symName: __ZNSt3__112basic_stringIcNS_11char_traitsIcEENS_9allocatorIcEEEC2B8ue170006Ev, symObjAddr: 0xF250, symBinAddr: 0x10000FF10, symSize: 0x50 }
  - { offsetInCU: 0x18696, offset: 0x18696, size: 0x8, addend: 0x0, symName: __ZNSt3__117__compressed_pairINS_12basic_stringIcNS_11char_traitsIcEENS_9allocatorIcEEE5__repES5_EC1B8ue170006INS_18__default_init_tagESA_EEOT_OT0_, symObjAddr: 0xF2A0, symBinAddr: 0x10000FF60, symSize: 0x30 }
  - { offsetInCU: 0x186EE, offset: 0x186EE, size: 0x8, addend: 0x0, symName: __ZNSt3__112basic_stringIcNS_11char_traitsIcEENS_9allocatorIcEEE14__default_initB8ue170006Ev, symObjAddr: 0xF2D0, symBinAddr: 0x10000FF90, symSize: 0x50 }
  - { offsetInCU: 0x18714, offset: 0x18714, size: 0x8, addend: 0x0, symName: __ZNSt3__117__compressed_pairINS_12basic_stringIcNS_11char_traitsIcEENS_9allocatorIcEEE5__repES5_EC2B8ue170006INS_18__default_init_tagESA_EEOT_OT0_, symObjAddr: 0xF320, symBinAddr: 0x10000FFE0, symSize: 0x30 }
  - { offsetInCU: 0x1876C, offset: 0x1876C, size: 0x8, addend: 0x0, symName: __ZNSt3__122__compressed_pair_elemINS_12basic_stringIcNS_11char_traitsIcEENS_9allocatorIcEEE5__repELi0ELb0EEC2B8ue170006ENS_18__default_init_tagE, symObjAddr: 0xF350, symBinAddr: 0x100010010, symSize: 0x10 }
  - { offsetInCU: 0x187A0, offset: 0x187A0, size: 0x8, addend: 0x0, symName: __ZNSt3__122__compressed_pair_elemINS_9allocatorIcEELi1ELb1EEC2B8ue170006ENS_18__default_init_tagE, symObjAddr: 0xF360, symBinAddr: 0x100010020, symSize: 0x20 }
  - { offsetInCU: 0x187D4, offset: 0x187D4, size: 0x8, addend: 0x0, symName: __ZNSt3__19allocatorIcEC2B8ue170006Ev, symObjAddr: 0xF380, symBinAddr: 0x100010040, symSize: 0x20 }
  - { offsetInCU: 0x187FE, offset: 0x187FE, size: 0x8, addend: 0x0, symName: __ZNSt3__116__non_trivial_ifILb1ENS_9allocatorIcEEEC2B8ue170006Ev, symObjAddr: 0xF3A0, symBinAddr: 0x100010060, symSize: 0x10 }
  - { offsetInCU: 0x18828, offset: 0x18828, size: 0x8, addend: 0x0, symName: __ZNSt3__117__compressed_pairINS_12basic_stringIcNS_11char_traitsIcEENS_9allocatorIcEEE5__repES5_E5firstB8ue170006Ev, symObjAddr: 0xF3B0, symBinAddr: 0x100010070, symSize: 0x20 }
  - { offsetInCU: 0x1884E, offset: 0x1884E, size: 0x8, addend: 0x0, symName: __ZNSt3__122__compressed_pair_elemINS_12basic_stringIcNS_11char_traitsIcEENS_9allocatorIcEEE5__repELi0ELb0EE5__getB8ue170006Ev, symObjAddr: 0xF3D0, symBinAddr: 0x100010090, symSize: 0x10 }
  - { offsetInCU: 0x18874, offset: 0x18874, size: 0x8, addend: 0x0, symName: __ZNSt3__112basic_stringIcNS_11char_traitsIcEENS_9allocatorIcEEE13__move_assignB8ue170006ERS5_NS_17integral_constantIbLb1EEE, symObjAddr: 0xF3E0, symBinAddr: 0x1000100A0, symSize: 0xD0 }
  - { offsetInCU: 0x188B7, offset: 0x188B7, size: 0x8, addend: 0x0, symName: __ZNKSt3__112basic_stringIcNS_11char_traitsIcEENS_9allocatorIcEEE9__is_longB8ue170006Ev, symObjAddr: 0xF4B0, symBinAddr: 0x100010170, symSize: 0x30 }
  - { offsetInCU: 0x188DD, offset: 0x188DD, size: 0x8, addend: 0x0, symName: __ZNSt3__116allocator_traitsINS_9allocatorIcEEE10deallocateB8ue170006ERS2_Pcm, symObjAddr: 0xF4E0, symBinAddr: 0x1000101A0, symSize: 0x30 }
  - { offsetInCU: 0x1891F, offset: 0x1891F, size: 0x8, addend: 0x0, symName: __ZNSt3__112basic_stringIcNS_11char_traitsIcEENS_9allocatorIcEEE7__allocB8ue170006Ev, symObjAddr: 0xF510, symBinAddr: 0x1000101D0, symSize: 0x20 }
  - { offsetInCU: 0x18945, offset: 0x18945, size: 0x8, addend: 0x0, symName: __ZNSt3__112basic_stringIcNS_11char_traitsIcEENS_9allocatorIcEEE18__get_long_pointerB8ue170006Ev, symObjAddr: 0xF530, symBinAddr: 0x1000101F0, symSize: 0x20 }
  - { offsetInCU: 0x1896B, offset: 0x1896B, size: 0x8, addend: 0x0, symName: __ZNKSt3__112basic_stringIcNS_11char_traitsIcEENS_9allocatorIcEEE14__get_long_capB8ue170006Ev, symObjAddr: 0xF550, symBinAddr: 0x100010210, symSize: 0x30 }
  - { offsetInCU: 0x18991, offset: 0x18991, size: 0x8, addend: 0x0, symName: __ZNSt3__112basic_stringIcNS_11char_traitsIcEENS_9allocatorIcEEE19__move_assign_allocB8ue170006ERS5_, symObjAddr: 0xF580, symBinAddr: 0x100010240, symSize: 0x30 }
  - { offsetInCU: 0x189C6, offset: 0x189C6, size: 0x8, addend: 0x0, symName: __ZNSt3__112basic_stringIcNS_11char_traitsIcEENS_9allocatorIcEEE16__set_short_sizeB8ue170006Em, symObjAddr: 0xF5B0, symBinAddr: 0x100010270, symSize: 0x50 }
  - { offsetInCU: 0x189FB, offset: 0x189FB, size: 0x8, addend: 0x0, symName: __ZNSt3__111char_traitsIcE6assignB8ue170006ERcRKc, symObjAddr: 0xF600, symBinAddr: 0x1000102C0, symSize: 0x20 }
  - { offsetInCU: 0x18A2C, offset: 0x18A2C, size: 0x8, addend: 0x0, symName: __ZNSt3__112basic_stringIcNS_11char_traitsIcEENS_9allocatorIcEEE19__get_short_pointerB8ue170006Ev, symObjAddr: 0xF620, symBinAddr: 0x1000102E0, symSize: 0x30 }
  - { offsetInCU: 0x18A52, offset: 0x18A52, size: 0x8, addend: 0x0, symName: __ZNKSt3__117__compressed_pairINS_12basic_stringIcNS_11char_traitsIcEENS_9allocatorIcEEE5__repES5_E5firstB8ue170006Ev, symObjAddr: 0xF650, symBinAddr: 0x100010310, symSize: 0x20 }
  - { offsetInCU: 0x18A78, offset: 0x18A78, size: 0x8, addend: 0x0, symName: __ZNKSt3__122__compressed_pair_elemINS_12basic_stringIcNS_11char_traitsIcEENS_9allocatorIcEEE5__repELi0ELb0EE5__getB8ue170006Ev, symObjAddr: 0xF670, symBinAddr: 0x100010330, symSize: 0x10 }
  - { offsetInCU: 0x18A9E, offset: 0x18A9E, size: 0x8, addend: 0x0, symName: __ZNSt3__19allocatorIcE10deallocateB8ue170006EPcm, symObjAddr: 0xF680, symBinAddr: 0x100010340, symSize: 0x40 }
  - { offsetInCU: 0x18AE0, offset: 0x18AE0, size: 0x8, addend: 0x0, symName: __ZNSt3__117__compressed_pairINS_12basic_stringIcNS_11char_traitsIcEENS_9allocatorIcEEE5__repES5_E6secondB8ue170006Ev, symObjAddr: 0xF6C0, symBinAddr: 0x100010380, symSize: 0x20 }
  - { offsetInCU: 0x18B06, offset: 0x18B06, size: 0x8, addend: 0x0, symName: __ZNSt3__122__compressed_pair_elemINS_9allocatorIcEELi1ELb1EE5__getB8ue170006Ev, symObjAddr: 0xF6E0, symBinAddr: 0x1000103A0, symSize: 0x10 }
  - { offsetInCU: 0x18B2C, offset: 0x18B2C, size: 0x8, addend: 0x0, symName: __ZNSt3__112basic_stringIcNS_11char_traitsIcEENS_9allocatorIcEEE19__move_assign_allocB8ue170006ERS5_NS_17integral_constantIbLb1EEE, symObjAddr: 0xF6F0, symBinAddr: 0x1000103B0, symSize: 0x30 }
  - { offsetInCU: 0x18B6D, offset: 0x18B6D, size: 0x8, addend: 0x0, symName: __ZNSt3__114pointer_traitsIPcE10pointer_toB8ue170006ERc, symObjAddr: 0xF720, symBinAddr: 0x1000103E0, symSize: 0x10 }
  - { offsetInCU: 0x18B90, offset: 0x18B90, size: 0x8, addend: 0x0, symName: __ZNSt3__112basic_stringIcNS_11char_traitsIcEENS_9allocatorIcEEE5beginB8ue170006Ev, symObjAddr: 0xF730, symBinAddr: 0x1000103F0, symSize: 0x50 }
  - { offsetInCU: 0x18BBB, offset: 0x18BBB, size: 0x8, addend: 0x0, symName: __ZNSt3__111__wrap_iterIPKcEC1B8ue170006IPcEERKNS0_IT_EEPNS_9enable_ifIXsr14is_convertibleIS6_S2_EE5valueEvE4typeE, symObjAddr: 0xF780, symBinAddr: 0x100010440, symSize: 0x30 }
  - { offsetInCU: 0x18C06, offset: 0x18C06, size: 0x8, addend: 0x0, symName: __ZNSt3__112basic_stringIcNS_11char_traitsIcEENS_9allocatorIcEEEC1B8ue170006EOS5_, symObjAddr: 0xF7B0, symBinAddr: 0x100010470, symSize: 0x30 }
  - { offsetInCU: 0x18C3F, offset: 0x18C3F, size: 0x8, addend: 0x0, symName: __ZNSt3__112basic_stringIcNS_11char_traitsIcEENS_9allocatorIcEEE15__make_iteratorB8ue170006EPc, symObjAddr: 0xF7E0, symBinAddr: 0x1000104A0, symSize: 0x30 }
  - { offsetInCU: 0x18C74, offset: 0x18C74, size: 0x8, addend: 0x0, symName: __ZNSt3__112basic_stringIcNS_11char_traitsIcEENS_9allocatorIcEEE13__get_pointerB8ue170006Ev, symObjAddr: 0xF810, symBinAddr: 0x1000104D0, symSize: 0x50 }
  - { offsetInCU: 0x18C9A, offset: 0x18C9A, size: 0x8, addend: 0x0, symName: __ZNSt3__111__wrap_iterIPcEC1B8ue170006ES1_, symObjAddr: 0xF860, symBinAddr: 0x100010520, symSize: 0x30 }
  - { offsetInCU: 0x18CD2, offset: 0x18CD2, size: 0x8, addend: 0x0, symName: __ZNSt3__111__wrap_iterIPcEC2B8ue170006ES1_, symObjAddr: 0xF890, symBinAddr: 0x100010550, symSize: 0x20 }
  - { offsetInCU: 0x18D0A, offset: 0x18D0A, size: 0x8, addend: 0x0, symName: __ZNSt3__111__wrap_iterIPKcEC2B8ue170006IPcEERKNS0_IT_EEPNS_9enable_ifIXsr14is_convertibleIS6_S2_EE5valueEvE4typeE, symObjAddr: 0xF8B0, symBinAddr: 0x100010570, symSize: 0x40 }
  - { offsetInCU: 0x18D55, offset: 0x18D55, size: 0x8, addend: 0x0, symName: __ZNKSt3__111__wrap_iterIPcE4baseB8ue170006Ev, symObjAddr: 0xF8F0, symBinAddr: 0x1000105B0, symSize: 0x20 }
  - { offsetInCU: 0x18D7B, offset: 0x18D7B, size: 0x8, addend: 0x0, symName: __ZNSt3__112basic_stringIcNS_11char_traitsIcEENS_9allocatorIcEEEC2B8ue170006EOS5_, symObjAddr: 0xF910, symBinAddr: 0x1000105D0, symSize: 0x40 }
  - { offsetInCU: 0x18DB4, offset: 0x18DB4, size: 0x8, addend: 0x0, symName: __ZN16MovePieceCommandD2Ev, symObjAddr: 0xF950, symBinAddr: 0x100010610, symSize: 0x60 }
  - { offsetInCU: 0x18DDE, offset: 0x18DDE, size: 0x8, addend: 0x0, symName: __ZN5BoardC2ENSt3__112basic_stringIcNS0_11char_traitsIcEENS0_9allocatorIcEEEE, symObjAddr: 0xF9B0, symBinAddr: 0x100010670, symSize: 0x260 }
  - { offsetInCU: 0x18E17, offset: 0x18E17, size: 0x8, addend: 0x0, symName: __ZN4GameC2Ev, symObjAddr: 0xFC10, symBinAddr: 0x1000108D0, symSize: 0x620 }
  - { offsetInCU: 0x18E41, offset: 0x18E41, size: 0x8, addend: 0x0, symName: __ZNSt3__15queueIP7CommandNS_5dequeIS2_NS_9allocatorIS2_EEEEEC1B8ue170006Ev, symObjAddr: 0x10230, symBinAddr: 0x100010EF0, symSize: 0x20 }
  - { offsetInCU: 0x18E6B, offset: 0x18E6B, size: 0x8, addend: 0x0, symName: __ZNSt3__15stackIP7CommandNS_5dequeIS2_NS_9allocatorIS2_EEEEEC1B8ue170006Ev, symObjAddr: 0x10250, symBinAddr: 0x100010F10, symSize: 0x20 }
  - { offsetInCU: 0x18E95, offset: 0x18E95, size: 0x8, addend: 0x0, symName: __ZN2UIC1Ev, symObjAddr: 0x10270, symBinAddr: 0x100010F30, symSize: 0x20 }
  - { offsetInCU: 0x18EBF, offset: 0x18EBF, size: 0x8, addend: 0x0, symName: __ZN5BoardC1Ev, symObjAddr: 0x10290, symBinAddr: 0x100010F50, symSize: 0x20 }
  - { offsetInCU: 0x18EE9, offset: 0x18EE9, size: 0x8, addend: 0x0, symName: __ZNSt3__15stackIP7CommandNS_5dequeIS2_NS_9allocatorIS2_EEEEED1Ev, symObjAddr: 0x102B0, symBinAddr: 0x100010F70, symSize: 0x20 }
  - { offsetInCU: 0x18F15, offset: 0x18F15, size: 0x8, addend: 0x0, symName: __ZNSt3__15queueIP7CommandNS_5dequeIS2_NS_9allocatorIS2_EEEEED1Ev, symObjAddr: 0x102D0, symBinAddr: 0x100010F90, symSize: 0x20 }
  - { offsetInCU: 0x18F42, offset: 0x18F42, size: 0x8, addend: 0x0, symName: __ZNSt3__15queueIP7CommandNS_5dequeIS2_NS_9allocatorIS2_EEEEEC2B8ue170006Ev, symObjAddr: 0x102F0, symBinAddr: 0x100010FB0, symSize: 0x20 }
  - { offsetInCU: 0x18F6C, offset: 0x18F6C, size: 0x8, addend: 0x0, symName: __ZNSt3__15dequeIP7CommandNS_9allocatorIS2_EEEC1B8ue170006Ev, symObjAddr: 0x10310, symBinAddr: 0x100010FD0, symSize: 0x20 }
  - { offsetInCU: 0x18F96, offset: 0x18F96, size: 0x8, addend: 0x0, symName: __ZNSt3__15dequeIP7CommandNS_9allocatorIS2_EEEC2B8ue170006Ev, symObjAddr: 0x10330, symBinAddr: 0x100010FF0, symSize: 0x60 }
  - { offsetInCU: 0x18FC0, offset: 0x18FC0, size: 0x8, addend: 0x0, symName: __ZNSt3__114__split_bufferIPP7CommandNS_9allocatorIS3_EEEC1B8ue170006Ev, symObjAddr: 0x10390, symBinAddr: 0x100011050, symSize: 0x20 }
  - { offsetInCU: 0x18FEF, offset: 0x18FEF, size: 0x8, addend: 0x0, symName: __ZNSt3__117__compressed_pairImNS_9allocatorIP7CommandEEEC1B8ue170006IiNS_18__default_init_tagEEEOT_OT0_, symObjAddr: 0x103B0, symBinAddr: 0x100011070, symSize: 0x30 }
  - { offsetInCU: 0x19047, offset: 0x19047, size: 0x8, addend: 0x0, symName: __ZNKSt3__15dequeIP7CommandNS_9allocatorIS2_EEE14__annotate_newB8ue170006Em, symObjAddr: 0x103E0, symBinAddr: 0x1000110A0, symSize: 0xC0 }
  - { offsetInCU: 0x1907C, offset: 0x1907C, size: 0x8, addend: 0x0, symName: __ZNSt3__114__split_bufferIPP7CommandNS_9allocatorIS3_EEEC2B8ue170006Ev, symObjAddr: 0x104A0, symBinAddr: 0x100011160, symSize: 0x60 }
  - { offsetInCU: 0x190A6, offset: 0x190A6, size: 0x8, addend: 0x0, symName: __ZNSt3__117__compressed_pairIPPP7CommandNS_9allocatorIS3_EEEC1B8ue170006IDnNS_18__default_init_tagEEEOT_OT0_, symObjAddr: 0x10500, symBinAddr: 0x1000111C0, symSize: 0x30 }
  - { offsetInCU: 0x190FE, offset: 0x190FE, size: 0x8, addend: 0x0, symName: __ZNSt3__117__compressed_pairIPPP7CommandNS_9allocatorIS3_EEEC2B8ue170006IDnNS_18__default_init_tagEEEOT_OT0_, symObjAddr: 0x10530, symBinAddr: 0x1000111F0, symSize: 0x40 }
  - { offsetInCU: 0x19156, offset: 0x19156, size: 0x8, addend: 0x0, symName: __ZNSt3__122__compressed_pair_elemIPPP7CommandLi0ELb0EEC2B8ue170006IDnvEEOT_, symObjAddr: 0x10570, symBinAddr: 0x100011230, symSize: 0x20 }
  - { offsetInCU: 0x19198, offset: 0x19198, size: 0x8, addend: 0x0, symName: __ZNSt3__122__compressed_pair_elemINS_9allocatorIPP7CommandEELi1ELb1EEC2B8ue170006ENS_18__default_init_tagE, symObjAddr: 0x10590, symBinAddr: 0x100011250, symSize: 0x20 }
  - { offsetInCU: 0x191CC, offset: 0x191CC, size: 0x8, addend: 0x0, symName: __ZNSt3__19allocatorIPP7CommandEC2B8ue170006Ev, symObjAddr: 0x105B0, symBinAddr: 0x100011270, symSize: 0x20 }
  - { offsetInCU: 0x191F6, offset: 0x191F6, size: 0x8, addend: 0x0, symName: __ZNSt3__116__non_trivial_ifILb1ENS_9allocatorIPP7CommandEEEC2B8ue170006Ev, symObjAddr: 0x105D0, symBinAddr: 0x100011290, symSize: 0x10 }
  - { offsetInCU: 0x19220, offset: 0x19220, size: 0x8, addend: 0x0, symName: __ZNSt3__117__compressed_pairImNS_9allocatorIP7CommandEEEC2B8ue170006IiNS_18__default_init_tagEEEOT_OT0_, symObjAddr: 0x105E0, symBinAddr: 0x1000112A0, symSize: 0x40 }
  - { offsetInCU: 0x19278, offset: 0x19278, size: 0x8, addend: 0x0, symName: __ZNSt3__122__compressed_pair_elemImLi0ELb0EEC2B8ue170006IivEEOT_, symObjAddr: 0x10620, symBinAddr: 0x1000112E0, symSize: 0x20 }
  - { offsetInCU: 0x192BA, offset: 0x192BA, size: 0x8, addend: 0x0, symName: __ZNSt3__122__compressed_pair_elemINS_9allocatorIP7CommandEELi1ELb1EEC2B8ue170006ENS_18__default_init_tagE, symObjAddr: 0x10640, symBinAddr: 0x100011300, symSize: 0x20 }
  - { offsetInCU: 0x192EE, offset: 0x192EE, size: 0x8, addend: 0x0, symName: __ZNSt3__19allocatorIP7CommandEC2B8ue170006Ev, symObjAddr: 0x10660, symBinAddr: 0x100011320, symSize: 0x20 }
  - { offsetInCU: 0x19318, offset: 0x19318, size: 0x8, addend: 0x0, symName: __ZNSt3__116__non_trivial_ifILb1ENS_9allocatorIP7CommandEEEC2B8ue170006Ev, symObjAddr: 0x10680, symBinAddr: 0x100011340, symSize: 0x10 }
  - { offsetInCU: 0x19342, offset: 0x19342, size: 0x8, addend: 0x0, symName: __ZNKSt3__15dequeIP7CommandNS_9allocatorIS2_EEE18__annotate_from_toB8ue170006EmmNS5_22__asan_annotation_typeENS5_23__asan_annotation_placeE, symObjAddr: 0x10690, symBinAddr: 0x100011350, symSize: 0x560 }
  - { offsetInCU: 0x194FE, offset: 0x194FE, size: 0x8, addend: 0x0, symName: __ZNKSt3__114__split_bufferIPP7CommandNS_9allocatorIS3_EEE4sizeB8ue170006Ev, symObjAddr: 0x10BF0, symBinAddr: 0x1000118B0, symSize: 0x20 }
  - { offsetInCU: 0x19524, offset: 0x19524, size: 0x8, addend: 0x0, symName: __ZNKSt3__114__split_bufferIPP7CommandNS_9allocatorIS3_EEE5beginB8ue170006Ev, symObjAddr: 0x10C10, symBinAddr: 0x1000118D0, symSize: 0x20 }
  - { offsetInCU: 0x1954A, offset: 0x1954A, size: 0x8, addend: 0x0, symName: __ZNKSt3__15dequeIP7CommandNS_9allocatorIS2_EEE4sizeB8ue170006Ev, symObjAddr: 0x10C30, symBinAddr: 0x1000118F0, symSize: 0x20 }
  - { offsetInCU: 0x19570, offset: 0x19570, size: 0x8, addend: 0x0, symName: __ZNKSt3__15dequeIP7CommandNS_9allocatorIS2_EEE5emptyB8ue170006Ev, symObjAddr: 0x10C50, symBinAddr: 0x100011910, symSize: 0x30 }
  - { offsetInCU: 0x19596, offset: 0x19596, size: 0x8, addend: 0x0, symName: __ZNKSt3__15dequeIP7CommandNS_9allocatorIS2_EEE44__annotate_double_ended_contiguous_containerB8ue170006EPKvS7_S7_S7_S7_S7_, symObjAddr: 0x10C90, symBinAddr: 0x100011950, symSize: 0x30 }
  - { offsetInCU: 0x19604, offset: 0x19604, size: 0x8, addend: 0x0, symName: __ZNKSt3__15dequeIP7CommandNS_9allocatorIS2_EEE6__sizeB8ue170006Ev, symObjAddr: 0x10CC0, symBinAddr: 0x100011980, symSize: 0x20 }
  - { offsetInCU: 0x1962A, offset: 0x1962A, size: 0x8, addend: 0x0, symName: __ZNKSt3__117__compressed_pairImNS_9allocatorIP7CommandEEE5firstB8ue170006Ev, symObjAddr: 0x10CE0, symBinAddr: 0x1000119A0, symSize: 0x20 }
  - { offsetInCU: 0x19650, offset: 0x19650, size: 0x8, addend: 0x0, symName: __ZNKSt3__122__compressed_pair_elemImLi0ELb0EE5__getB8ue170006Ev, symObjAddr: 0x10D00, symBinAddr: 0x1000119C0, symSize: 0x10 }
  - { offsetInCU: 0x19676, offset: 0x19676, size: 0x8, addend: 0x0, symName: __ZNSt3__15stackIP7CommandNS_5dequeIS2_NS_9allocatorIS2_EEEEEC2B8ue170006Ev, symObjAddr: 0x10D10, symBinAddr: 0x1000119D0, symSize: 0x20 }
  - { offsetInCU: 0x196A0, offset: 0x196A0, size: 0x8, addend: 0x0, symName: __ZN2UIC2Ev, symObjAddr: 0x10D30, symBinAddr: 0x1000119F0, symSize: 0x30 }
  - { offsetInCU: 0x196CA, offset: 0x196CA, size: 0x8, addend: 0x0, symName: __ZN5BoardC2Ev, symObjAddr: 0x10D60, symBinAddr: 0x100011A20, symSize: 0x310 }
  - { offsetInCU: 0x196F4, offset: 0x196F4, size: 0x8, addend: 0x0, symName: __ZNSt3__15stackIP7CommandNS_5dequeIS2_NS_9allocatorIS2_EEEEED2Ev, symObjAddr: 0x11070, symBinAddr: 0x100011D30, symSize: 0x20 }
  - { offsetInCU: 0x19720, offset: 0x19720, size: 0x8, addend: 0x0, symName: __ZNSt3__15dequeIP7CommandNS_9allocatorIS2_EEED1B8ue170006Ev, symObjAddr: 0x11090, symBinAddr: 0x100011D50, symSize: 0x20 }
  - { offsetInCU: 0x1974A, offset: 0x1974A, size: 0x8, addend: 0x0, symName: __ZNSt3__15dequeIP7CommandNS_9allocatorIS2_EEED2B8ue170006Ev, symObjAddr: 0x110B0, symBinAddr: 0x100011D70, symSize: 0x90 }
  - { offsetInCU: 0x197A1, offset: 0x197A1, size: 0x8, addend: 0x0, symName: __ZNSt3__15dequeIP7CommandNS_9allocatorIS2_EEE5clearEv, symObjAddr: 0x11140, symBinAddr: 0x100011E00, symSize: 0x180 }
  - { offsetInCU: 0x197FC, offset: 0x197FC, size: 0x8, addend: 0x0, symName: __ZNKSt3__15dequeIP7CommandNS_9allocatorIS2_EEE17__annotate_deleteB8ue170006Ev, symObjAddr: 0x112C0, symBinAddr: 0x100011F80, symSize: 0xE0 }
  - { offsetInCU: 0x19840, offset: 0x19840, size: 0x8, addend: 0x0, symName: __ZNSt3__114__split_bufferIPP7CommandNS_9allocatorIS3_EEE5beginB8ue170006Ev, symObjAddr: 0x113A0, symBinAddr: 0x100012060, symSize: 0x20 }
  - { offsetInCU: 0x19866, offset: 0x19866, size: 0x8, addend: 0x0, symName: __ZNSt3__114__split_bufferIPP7CommandNS_9allocatorIS3_EEE3endB8ue170006Ev, symObjAddr: 0x113C0, symBinAddr: 0x100012080, symSize: 0x20 }
  - { offsetInCU: 0x1988C, offset: 0x1988C, size: 0x8, addend: 0x0, symName: __ZNSt3__116allocator_traitsINS_9allocatorIP7CommandEEE10deallocateB8ue170006ERS4_PS3_m, symObjAddr: 0x113E0, symBinAddr: 0x1000120A0, symSize: 0x30 }
  - { offsetInCU: 0x198CE, offset: 0x198CE, size: 0x8, addend: 0x0, symName: __ZNSt3__15dequeIP7CommandNS_9allocatorIS2_EEE7__allocB8ue170006Ev, symObjAddr: 0x11410, symBinAddr: 0x1000120D0, symSize: 0x20 }
  - { offsetInCU: 0x198F4, offset: 0x198F4, size: 0x8, addend: 0x0, symName: __ZNSt3__114__split_bufferIPP7CommandNS_9allocatorIS3_EEED1Ev, symObjAddr: 0x11430, symBinAddr: 0x1000120F0, symSize: 0x20 }
  - { offsetInCU: 0x19920, offset: 0x19920, size: 0x8, addend: 0x0, symName: __ZNSt3__15dequeIP7CommandNS_9allocatorIS2_EEE5beginB8ue170006Ev, symObjAddr: 0x11450, symBinAddr: 0x100012110, symSize: 0xB0 }
  - { offsetInCU: 0x19955, offset: 0x19955, size: 0x8, addend: 0x0, symName: __ZNSt3__15dequeIP7CommandNS_9allocatorIS2_EEE3endB8ue170006Ev, symObjAddr: 0x11500, symBinAddr: 0x1000121C0, symSize: 0xB0 }
  - { offsetInCU: 0x19999, offset: 0x19999, size: 0x8, addend: 0x0, symName: __ZNSt3__116allocator_traitsINS_9allocatorIP7CommandEEE7destroyB8ue170006IS3_vEEvRS4_PT_, symObjAddr: 0x115E0, symBinAddr: 0x1000122A0, symSize: 0x30 }
  - { offsetInCU: 0x199D6, offset: 0x199D6, size: 0x8, addend: 0x0, symName: __ZNKSt3__116__deque_iteratorIP7CommandPS2_RS2_PS3_lLl512EEdeB8ue170006Ev, symObjAddr: 0x11610, symBinAddr: 0x1000122D0, symSize: 0x20 }
  - { offsetInCU: 0x199FC, offset: 0x199FC, size: 0x8, addend: 0x0, symName: __ZNSt3__116__deque_iteratorIP7CommandPS2_RS2_PS3_lLl512EEppB8ue170006Ev, symObjAddr: 0x11630, symBinAddr: 0x1000122F0, symSize: 0x60 }
  - { offsetInCU: 0x19A22, offset: 0x19A22, size: 0x8, addend: 0x0, symName: __ZNSt3__15dequeIP7CommandNS_9allocatorIS2_EEE6__sizeB8ue170006Ev, symObjAddr: 0x11690, symBinAddr: 0x100012350, symSize: 0x20 }
  - { offsetInCU: 0x19A48, offset: 0x19A48, size: 0x8, addend: 0x0, symName: __ZNSt3__114__split_bufferIPP7CommandNS_9allocatorIS3_EEE5frontB8ue170006Ev, symObjAddr: 0x116B0, symBinAddr: 0x100012370, symSize: 0x20 }
  - { offsetInCU: 0x19A6E, offset: 0x19A6E, size: 0x8, addend: 0x0, symName: __ZNSt3__114__split_bufferIPP7CommandNS_9allocatorIS3_EEE9pop_frontB8ue170006Ev, symObjAddr: 0x116D0, symBinAddr: 0x100012390, symSize: 0x30 }
  - { offsetInCU: 0x19A94, offset: 0x19A94, size: 0x8, addend: 0x0, symName: __ZNKSt3__114__split_bufferIPP7CommandNS_9allocatorIS3_EEE5emptyB8ue170006Ev, symObjAddr: 0x11700, symBinAddr: 0x1000123C0, symSize: 0x20 }
  - { offsetInCU: 0x19ABA, offset: 0x19ABA, size: 0x8, addend: 0x0, symName: __ZNSt3__116__deque_iteratorIP7CommandPS2_RS2_PS3_lLl512EEC1B8ue170006ES5_S3_, symObjAddr: 0x11720, symBinAddr: 0x1000123E0, symSize: 0x30 }
  - { offsetInCU: 0x19B02, offset: 0x19B02, size: 0x8, addend: 0x0, symName: __ZNSt3__116__deque_iteratorIP7CommandPS2_RS2_PS3_lLl512EEC2B8ue170006ES5_S3_, symObjAddr: 0x11750, symBinAddr: 0x100012410, symSize: 0x30 }
  - { offsetInCU: 0x19B4A, offset: 0x19B4A, size: 0x8, addend: 0x0, symName: __ZNSt3__19allocatorIP7CommandE7destroyB8ue170006EPS2_, symObjAddr: 0x117B0, symBinAddr: 0x100012470, symSize: 0x10 }
  - { offsetInCU: 0x19B7E, offset: 0x19B7E, size: 0x8, addend: 0x0, symName: __ZNSt3__117__compressed_pairImNS_9allocatorIP7CommandEEE5firstB8ue170006Ev, symObjAddr: 0x117C0, symBinAddr: 0x100012480, symSize: 0x20 }
  - { offsetInCU: 0x19BA4, offset: 0x19BA4, size: 0x8, addend: 0x0, symName: __ZNSt3__122__compressed_pair_elemImLi0ELb0EE5__getB8ue170006Ev, symObjAddr: 0x117E0, symBinAddr: 0x1000124A0, symSize: 0x10 }
  - { offsetInCU: 0x19BCA, offset: 0x19BCA, size: 0x8, addend: 0x0, symName: __ZNSt3__114__split_bufferIPP7CommandNS_9allocatorIS3_EEE19__destruct_at_beginB8ue170006EPS3_, symObjAddr: 0x117F0, symBinAddr: 0x1000124B0, symSize: 0x30 }
  - { offsetInCU: 0x19BFE, offset: 0x19BFE, size: 0x8, addend: 0x0, symName: __ZNSt3__114__split_bufferIPP7CommandNS_9allocatorIS3_EEE19__destruct_at_beginEPS3_NS_17integral_constantIbLb1EEE, symObjAddr: 0x11820, symBinAddr: 0x1000124E0, symSize: 0x20 }
  - { offsetInCU: 0x19C3E, offset: 0x19C3E, size: 0x8, addend: 0x0, symName: __ZNKSt3__15dequeIP7CommandNS_9allocatorIS2_EEE22__annotate_whole_blockB8ue170006EmNS5_22__asan_annotation_typeE, symObjAddr: 0x11840, symBinAddr: 0x100012500, symSize: 0xB0 }
  - { offsetInCU: 0x19CAF, offset: 0x19CAF, size: 0x8, addend: 0x0, symName: __ZNKSt3__15dequeIP7CommandNS_9allocatorIS2_EEE23__annotate_poison_blockB8ue170006EPKvS7_, symObjAddr: 0x118F0, symBinAddr: 0x1000125B0, symSize: 0x40 }
  - { offsetInCU: 0x19CF3, offset: 0x19CF3, size: 0x8, addend: 0x0, symName: __ZNSt3__19allocatorIP7CommandE10deallocateB8ue170006EPS2_m, symObjAddr: 0x11930, symBinAddr: 0x1000125F0, symSize: 0x40 }
  - { offsetInCU: 0x19D35, offset: 0x19D35, size: 0x8, addend: 0x0, symName: __ZNSt3__117__compressed_pairImNS_9allocatorIP7CommandEEE6secondB8ue170006Ev, symObjAddr: 0x11970, symBinAddr: 0x100012630, symSize: 0x20 }
  - { offsetInCU: 0x19D5B, offset: 0x19D5B, size: 0x8, addend: 0x0, symName: __ZNSt3__122__compressed_pair_elemINS_9allocatorIP7CommandEELi1ELb1EE5__getB8ue170006Ev, symObjAddr: 0x11990, symBinAddr: 0x100012650, symSize: 0x10 }
  - { offsetInCU: 0x19D81, offset: 0x19D81, size: 0x8, addend: 0x0, symName: __ZNSt3__114__split_bufferIPP7CommandNS_9allocatorIS3_EEED2Ev, symObjAddr: 0x119A0, symBinAddr: 0x100012660, symSize: 0x70 }
  - { offsetInCU: 0x19DAD, offset: 0x19DAD, size: 0x8, addend: 0x0, symName: __ZNSt3__114__split_bufferIPP7CommandNS_9allocatorIS3_EEE5clearB8ue170006Ev, symObjAddr: 0x11A10, symBinAddr: 0x1000126D0, symSize: 0x20 }
  - { offsetInCU: 0x19DD3, offset: 0x19DD3, size: 0x8, addend: 0x0, symName: __ZNSt3__116allocator_traitsINS_9allocatorIPP7CommandEEE10deallocateB8ue170006ERS5_PS4_m, symObjAddr: 0x11A30, symBinAddr: 0x1000126F0, symSize: 0x30 }
  - { offsetInCU: 0x19E15, offset: 0x19E15, size: 0x8, addend: 0x0, symName: __ZNSt3__114__split_bufferIPP7CommandNS_9allocatorIS3_EEE7__allocB8ue170006Ev, symObjAddr: 0x11A60, symBinAddr: 0x100012720, symSize: 0x20 }
  - { offsetInCU: 0x19E3B, offset: 0x19E3B, size: 0x8, addend: 0x0, symName: __ZNKSt3__114__split_bufferIPP7CommandNS_9allocatorIS3_EEE8capacityB8ue170006Ev, symObjAddr: 0x11A80, symBinAddr: 0x100012740, symSize: 0x30 }
  - { offsetInCU: 0x19E61, offset: 0x19E61, size: 0x8, addend: 0x0, symName: __ZNSt3__114__split_bufferIPP7CommandNS_9allocatorIS3_EEE17__destruct_at_endB8ue170006EPS3_, symObjAddr: 0x11AB0, symBinAddr: 0x100012770, symSize: 0x30 }
  - { offsetInCU: 0x19E95, offset: 0x19E95, size: 0x8, addend: 0x0, symName: __ZNSt3__114__split_bufferIPP7CommandNS_9allocatorIS3_EEE17__destruct_at_endB8ue170006EPS3_NS_17integral_constantIbLb0EEE, symObjAddr: 0x11AE0, symBinAddr: 0x1000127A0, symSize: 0x80 }
  - { offsetInCU: 0x19ED5, offset: 0x19ED5, size: 0x8, addend: 0x0, symName: __ZNSt3__116allocator_traitsINS_9allocatorIPP7CommandEEE7destroyB8ue170006IS4_vEEvRS5_PT_, symObjAddr: 0x11B60, symBinAddr: 0x100012820, symSize: 0x30 }
  - { offsetInCU: 0x19F12, offset: 0x19F12, size: 0x8, addend: 0x0, symName: __ZNSt3__19allocatorIPP7CommandE7destroyB8ue170006EPS3_, symObjAddr: 0x11BA0, symBinAddr: 0x100012860, symSize: 0x10 }
  - { offsetInCU: 0x19F46, offset: 0x19F46, size: 0x8, addend: 0x0, symName: __ZNSt3__19allocatorIPP7CommandE10deallocateB8ue170006EPS3_m, symObjAddr: 0x11BB0, symBinAddr: 0x100012870, symSize: 0x40 }
  - { offsetInCU: 0x19F88, offset: 0x19F88, size: 0x8, addend: 0x0, symName: __ZNSt3__117__compressed_pairIPPP7CommandNS_9allocatorIS3_EEE6secondB8ue170006Ev, symObjAddr: 0x11BF0, symBinAddr: 0x1000128B0, symSize: 0x20 }
  - { offsetInCU: 0x19FAE, offset: 0x19FAE, size: 0x8, addend: 0x0, symName: __ZNSt3__122__compressed_pair_elemINS_9allocatorIPP7CommandEELi1ELb1EE5__getB8ue170006Ev, symObjAddr: 0x11C10, symBinAddr: 0x1000128D0, symSize: 0x10 }
  - { offsetInCU: 0x19FD4, offset: 0x19FD4, size: 0x8, addend: 0x0, symName: __ZNKSt3__114__split_bufferIPP7CommandNS_9allocatorIS3_EEE9__end_capB8ue170006Ev, symObjAddr: 0x11C20, symBinAddr: 0x1000128E0, symSize: 0x20 }
  - { offsetInCU: 0x19FFA, offset: 0x19FFA, size: 0x8, addend: 0x0, symName: __ZNKSt3__117__compressed_pairIPPP7CommandNS_9allocatorIS3_EEE5firstB8ue170006Ev, symObjAddr: 0x11C40, symBinAddr: 0x100012900, symSize: 0x20 }
  - { offsetInCU: 0x1A020, offset: 0x1A020, size: 0x8, addend: 0x0, symName: __ZNKSt3__122__compressed_pair_elemIPPP7CommandLi0ELb0EE5__getB8ue170006Ev, symObjAddr: 0x11C60, symBinAddr: 0x100012920, symSize: 0x10 }
  - { offsetInCU: 0x1A046, offset: 0x1A046, size: 0x8, addend: 0x0, symName: __ZNSt3__15queueIP7CommandNS_5dequeIS2_NS_9allocatorIS2_EEEEED2Ev, symObjAddr: 0x11C70, symBinAddr: 0x100012930, symSize: 0x20 }
  - { offsetInCU: 0x1A073, offset: 0x1A073, size: 0x8, addend: 0x0, symName: __ZN4GameD2Ev, symObjAddr: 0x11C90, symBinAddr: 0x100012950, symSize: 0xC0 }
  - { offsetInCU: 0x1A09D, offset: 0x1A09D, size: 0x8, addend: 0x0, symName: __ZNSt3__112basic_stringIcNS_11char_traitsIcEENS_9allocatorIcEEEC2B8ue170006ILi0EEEPKc, symObjAddr: 0x11D50, symBinAddr: 0x100012A10, symSize: 0x50 }
  - { offsetInCU: 0x1A0DC, offset: 0x1A0DC, size: 0x8, addend: 0x0, symName: __ZNSt3__111char_traitsIcE6lengthB8ue170006EPKc, symObjAddr: 0x11DA0, symBinAddr: 0x100012A60, symSize: 0x30 }
  - { offsetInCU: 0x1A0FF, offset: 0x1A0FF, size: 0x8, addend: 0x0, symName: __ZNSt3__19allocatorIcEC1B8ue170006Ev, symObjAddr: 0x11DF0, symBinAddr: 0x100012AB0, symSize: 0x20 }
  - { offsetInCU: 0x1A129, offset: 0x1A129, size: 0x8, addend: 0x0, symName: __ZNKSt3__112basic_stringIcNS_11char_traitsIcEENS_9allocatorIcEEE4sizeB8ue170006Ev, symObjAddr: 0x11E10, symBinAddr: 0x100012AD0, symSize: 0x50 }
  - { offsetInCU: 0x1A14F, offset: 0x1A14F, size: 0x8, addend: 0x0, symName: __ZNKSt3__112basic_stringIcNS_11char_traitsIcEENS_9allocatorIcEEE15__get_long_sizeB8ue170006Ev, symObjAddr: 0x11E60, symBinAddr: 0x100012B20, symSize: 0x20 }
  - { offsetInCU: 0x1A175, offset: 0x1A175, size: 0x8, addend: 0x0, symName: __ZNKSt3__112basic_stringIcNS_11char_traitsIcEENS_9allocatorIcEEE16__get_short_sizeB8ue170006Ev, symObjAddr: 0x11E80, symBinAddr: 0x100012B40, symSize: 0x30 }
  - { offsetInCU: 0x1A19B, offset: 0x1A19B, size: 0x8, addend: 0x0, symName: __ZNSt3__123mersenne_twister_engineIjLm32ELm624ELm397ELm31ELj2567483615ELm11ELj4294967295ELm7ELj2636928640ELm15ELj4022730752ELm18ELj1812433253EEC2B8ue170006Ej, symObjAddr: 0x11EB0, symBinAddr: 0x100012B70, symSize: 0x30 }
  - { offsetInCU: 0x1A1D3, offset: 0x1A1D3, size: 0x8, addend: 0x0, symName: __ZNSt3__123mersenne_twister_engineIjLm32ELm624ELm397ELm31ELj2567483615ELm11ELj4294967295ELm7ELj2636928640ELm15ELj4022730752ELm18ELj1812433253EE4seedEj, symObjAddr: 0x11EE0, symBinAddr: 0x100012BA0, symSize: 0xB0 }
  - { offsetInCU: 0x1A227, offset: 0x1A227, size: 0x8, addend: 0x0, symName: __ZNSt3__123mersenne_twister_engineIjLm32ELm624ELm397ELm31ELj2567483615ELm11ELj4294967295ELm7ELj2636928640ELm15ELj4022730752ELm18ELj1812433253EE8__rshiftB8ue170006ILm30EEENS_9enable_ifIXltT_L_ZNS1_3_DtEEEjE4typeEj, symObjAddr: 0x11F90, symBinAddr: 0x100012C50, symSize: 0x10 }
  - { offsetInCU: 0x1A254, offset: 0x1A254, size: 0x8, addend: 0x0, symName: __ZNSt3__124uniform_int_distributionIiEC2B8ue170006Eii, symObjAddr: 0x11FA0, symBinAddr: 0x100012C60, symSize: 0x30 }
  - { offsetInCU: 0x1A29A, offset: 0x1A29A, size: 0x8, addend: 0x0, symName: __ZNSt3__124uniform_int_distributionIiE10param_typeC1B8ue170006Eii, symObjAddr: 0x11FD0, symBinAddr: 0x100012C90, symSize: 0x30 }
  - { offsetInCU: 0x1A2E0, offset: 0x1A2E0, size: 0x8, addend: 0x0, symName: __ZNSt3__124uniform_int_distributionIiE10param_typeC2B8ue170006Eii, symObjAddr: 0x12000, symBinAddr: 0x100012CC0, symSize: 0x20 }
  - { offsetInCU: 0x1A326, offset: 0x1A326, size: 0x8, addend: 0x0, symName: __ZNKSt3__124uniform_int_distributionIiE10param_type1bB8ue170006Ev, symObjAddr: 0x12170, symBinAddr: 0x100012E30, symSize: 0x20 }
  - { offsetInCU: 0x1A34C, offset: 0x1A34C, size: 0x8, addend: 0x0, symName: __ZNKSt3__124uniform_int_distributionIiE10param_type1aB8ue170006Ev, symObjAddr: 0x12190, symBinAddr: 0x100012E50, symSize: 0x10 }
  - { offsetInCU: 0x1A372, offset: 0x1A372, size: 0x8, addend: 0x0, symName: __ZNSt3__125__independent_bits_engineINS_23mersenne_twister_engineIjLm32ELm624ELm397ELm31ELj2567483615ELm11ELj4294967295ELm7ELj2636928640ELm15ELj4022730752ELm18ELj1812433253EEEjEC1ERS2_m, symObjAddr: 0x121A0, symBinAddr: 0x100012E60, symSize: 0x30 }
  - { offsetInCU: 0x1A3B9, offset: 0x1A3B9, size: 0x8, addend: 0x0, symName: __ZNSt3__125__independent_bits_engineINS_23mersenne_twister_engineIjLm32ELm624ELm397ELm31ELj2567483615ELm11ELj4294967295ELm7ELj2636928640ELm15ELj4022730752ELm18ELj1812433253EEEjEclB8ue170006Ev, symObjAddr: 0x121D0, symBinAddr: 0x100012E90, symSize: 0x20 }
  - { offsetInCU: 0x1A3DF, offset: 0x1A3DF, size: 0x8, addend: 0x0, symName: __ZNSt3__114numeric_limitsIjE3maxB8ue170006Ev, symObjAddr: 0x12230, symBinAddr: 0x100012EF0, symSize: 0x10 }
  - { offsetInCU: 0x1A3F3, offset: 0x1A3F3, size: 0x8, addend: 0x0, symName: __ZNSt3__125__independent_bits_engineINS_23mersenne_twister_engineIjLm32ELm624ELm397ELm31ELj2567483615ELm11ELj4294967295ELm7ELj2636928640ELm15ELj4022730752ELm18ELj1812433253EEEjEC2ERS2_m, symObjAddr: 0x12240, symBinAddr: 0x100012F00, symSize: 0x1D0 }
  - { offsetInCU: 0x1A43A, offset: 0x1A43A, size: 0x8, addend: 0x0, symName: __ZNSt3__125__independent_bits_engineINS_23mersenne_twister_engineIjLm32ELm624ELm397ELm31ELj2567483615ELm11ELj4294967295ELm7ELj2636928640ELm15ELj4022730752ELm18ELj1812433253EEEjE6__evalENS_17integral_constantIbLb0EEE, symObjAddr: 0x12410, symBinAddr: 0x1000130D0, symSize: 0x30 }
  - { offsetInCU: 0x1A46B, offset: 0x1A46B, size: 0x8, addend: 0x0, symName: __ZNSt3__123mersenne_twister_engineIjLm32ELm624ELm397ELm31ELj2567483615ELm11ELj4294967295ELm7ELj2636928640ELm15ELj4022730752ELm18ELj1812433253EEclEv, symObjAddr: 0x12440, symBinAddr: 0x100013100, symSize: 0x130 }
  - { offsetInCU: 0x1A4DE, offset: 0x1A4DE, size: 0x8, addend: 0x0, symName: __ZNSt3__123mersenne_twister_engineIjLm32ELm624ELm397ELm31ELj2567483615ELm11ELj4294967295ELm7ELj2636928640ELm15ELj4022730752ELm18ELj1812433253EE8__rshiftB8ue170006ILm1EEENS_9enable_ifIXltT_L_ZNS1_3_DtEEEjE4typeEj, symObjAddr: 0x12570, symBinAddr: 0x100013230, symSize: 0x10 }
  - { offsetInCU: 0x1A50B, offset: 0x1A50B, size: 0x8, addend: 0x0, symName: __ZNSt3__123mersenne_twister_engineIjLm32ELm624ELm397ELm31ELj2567483615ELm11ELj4294967295ELm7ELj2636928640ELm15ELj4022730752ELm18ELj1812433253EE8__rshiftB8ue170006ILm11EEENS_9enable_ifIXltT_L_ZNS1_3_DtEEEjE4typeEj, symObjAddr: 0x12580, symBinAddr: 0x100013240, symSize: 0x10 }
  - { offsetInCU: 0x1A538, offset: 0x1A538, size: 0x8, addend: 0x0, symName: __ZNSt3__123mersenne_twister_engineIjLm32ELm624ELm397ELm31ELj2567483615ELm11ELj4294967295ELm7ELj2636928640ELm15ELj4022730752ELm18ELj1812433253EE8__lshiftB8ue170006ILm7EEENS_9enable_ifIXltT_Lm32EEjE4typeEj, symObjAddr: 0x12590, symBinAddr: 0x100013250, symSize: 0x20 }
  - { offsetInCU: 0x1A565, offset: 0x1A565, size: 0x8, addend: 0x0, symName: __ZNSt3__123mersenne_twister_engineIjLm32ELm624ELm397ELm31ELj2567483615ELm11ELj4294967295ELm7ELj2636928640ELm15ELj4022730752ELm18ELj1812433253EE8__lshiftB8ue170006ILm15EEENS_9enable_ifIXltT_Lm32EEjE4typeEj, symObjAddr: 0x125B0, symBinAddr: 0x100013270, symSize: 0x20 }
  - { offsetInCU: 0x1A592, offset: 0x1A592, size: 0x8, addend: 0x0, symName: __ZNSt3__123mersenne_twister_engineIjLm32ELm624ELm397ELm31ELj2567483615ELm11ELj4294967295ELm7ELj2636928640ELm15ELj4022730752ELm18ELj1812433253EE8__rshiftB8ue170006ILm18EEENS_9enable_ifIXltT_L_ZNS1_3_DtEEEjE4typeEj, symObjAddr: 0x125D0, symBinAddr: 0x100013290, symSize: 0x10 }
  - { offsetInCU: 0x1A5BF, offset: 0x1A5BF, size: 0x8, addend: 0x0, symName: __ZNSt3__123__libcpp_numeric_limitsIjLb1EE3maxB8ue170006Ev, symObjAddr: 0x12600, symBinAddr: 0x1000132C0, symSize: 0x10 }
  - { offsetInCU: 0x1A5D3, offset: 0x1A5D3, size: 0x8, addend: 0x0, symName: __ZNSt3__18ios_base5widthB8ue170006El, symObjAddr: 0x12610, symBinAddr: 0x1000132D0, symSize: 0x30 }
  - { offsetInCU: 0x1A619, offset: 0x1A619, size: 0x8, addend: 0x0, symName: __ZNKSt3__19basic_iosIcNS_11char_traitsIcEEE5widenB8ue170006Ec, symObjAddr: 0x12640, symBinAddr: 0x100013300, symSize: 0x80 }
  - { offsetInCU: 0x1A682, offset: 0x1A682, size: 0x8, addend: 0x0, symName: __ZNKSt3__15ctypeIcE5widenB8ue170006Ec, symObjAddr: 0x126F0, symBinAddr: 0x1000133B0, symSize: 0x30 }
  - { offsetInCU: 0x1A6D5, offset: 0x1A6D5, size: 0x8, addend: 0x0, symName: __ZNKSt3__113basic_ostreamIcNS_11char_traitsIcEEE6sentrycvbB8ue170006Ev, symObjAddr: 0x12910, symBinAddr: 0x1000135D0, symSize: 0x20 }
  - { offsetInCU: 0x1A6FB, offset: 0x1A6FB, size: 0x8, addend: 0x0, symName: __ZNSt3__119ostreambuf_iteratorIcNS_11char_traitsIcEEEC1B8ue170006ERNS_13basic_ostreamIcS2_EE, symObjAddr: 0x12B50, symBinAddr: 0x100013810, symSize: 0x30 }
  - { offsetInCU: 0x1A733, offset: 0x1A733, size: 0x8, addend: 0x0, symName: __ZNKSt3__18ios_base5flagsB8ue170006Ev, symObjAddr: 0x12B80, symBinAddr: 0x100013840, symSize: 0x20 }
  - { offsetInCU: 0x1A75B, offset: 0x1A75B, size: 0x8, addend: 0x0, symName: __ZNKSt3__19basic_iosIcNS_11char_traitsIcEEE4fillB8ue170006Ev, symObjAddr: 0x12BA0, symBinAddr: 0x100013860, symSize: 0x70 }
  - { offsetInCU: 0x1A783, offset: 0x1A783, size: 0x8, addend: 0x0, symName: __ZNKSt3__119ostreambuf_iteratorIcNS_11char_traitsIcEEE6failedB8ue170006Ev, symObjAddr: 0x12C10, symBinAddr: 0x1000138D0, symSize: 0x20 }
  - { offsetInCU: 0x1A7A9, offset: 0x1A7A9, size: 0x8, addend: 0x0, symName: __ZNSt3__19basic_iosIcNS_11char_traitsIcEEE8setstateB8ue170006Ej, symObjAddr: 0x12C30, symBinAddr: 0x1000138F0, symSize: 0x30 }
  - { offsetInCU: 0x1A7DE, offset: 0x1A7DE, size: 0x8, addend: 0x0, symName: __ZNKSt3__18ios_base5widthB8ue170006Ev, symObjAddr: 0x12C60, symBinAddr: 0x100013920, symSize: 0x20 }
  - { offsetInCU: 0x1A806, offset: 0x1A806, size: 0x8, addend: 0x0, symName: __ZNSt3__115basic_streambufIcNS_11char_traitsIcEEE5sputnB8ue170006EPKcl, symObjAddr: 0x12C80, symBinAddr: 0x100013940, symSize: 0x30 }
  - { offsetInCU: 0x1A848, offset: 0x1A848, size: 0x8, addend: 0x0, symName: __ZNSt3__112basic_stringIcNS_11char_traitsIcEENS_9allocatorIcEEEC1B8ue170006Emc, symObjAddr: 0x12CB0, symBinAddr: 0x100013970, symSize: 0x30 }
  - { offsetInCU: 0x1A890, offset: 0x1A890, size: 0x8, addend: 0x0, symName: __ZNKSt3__112basic_stringIcNS_11char_traitsIcEENS_9allocatorIcEEE4dataB8ue170006Ev, symObjAddr: 0x12CE0, symBinAddr: 0x1000139A0, symSize: 0x30 }
  - { offsetInCU: 0x1A8B6, offset: 0x1A8B6, size: 0x8, addend: 0x0, symName: __ZNSt3__112basic_stringIcNS_11char_traitsIcEENS_9allocatorIcEEEC2B8ue170006Emc, symObjAddr: 0x12D10, symBinAddr: 0x1000139D0, symSize: 0x50 }
  - { offsetInCU: 0x1A8FE, offset: 0x1A8FE, size: 0x8, addend: 0x0, symName: __ZNKSt3__112basic_stringIcNS_11char_traitsIcEENS_9allocatorIcEEE13__get_pointerB8ue170006Ev, symObjAddr: 0x12D70, symBinAddr: 0x100013A30, symSize: 0x50 }
  - { offsetInCU: 0x1A924, offset: 0x1A924, size: 0x8, addend: 0x0, symName: __ZNKSt3__112basic_stringIcNS_11char_traitsIcEENS_9allocatorIcEEE18__get_long_pointerB8ue170006Ev, symObjAddr: 0x12DC0, symBinAddr: 0x100013A80, symSize: 0x20 }
  - { offsetInCU: 0x1A94A, offset: 0x1A94A, size: 0x8, addend: 0x0, symName: __ZNKSt3__112basic_stringIcNS_11char_traitsIcEENS_9allocatorIcEEE19__get_short_pointerB8ue170006Ev, symObjAddr: 0x12DE0, symBinAddr: 0x100013AA0, symSize: 0x30 }
  - { offsetInCU: 0x1A970, offset: 0x1A970, size: 0x8, addend: 0x0, symName: __ZNSt3__114pointer_traitsIPKcE10pointer_toB8ue170006ERS1_, symObjAddr: 0x12E10, symBinAddr: 0x100013AD0, symSize: 0x10 }
  - { offsetInCU: 0x1A993, offset: 0x1A993, size: 0x8, addend: 0x0, symName: __ZNSt3__119ostreambuf_iteratorIcNS_11char_traitsIcEEEC2B8ue170006ERNS_13basic_ostreamIcS2_EE, symObjAddr: 0x12E20, symBinAddr: 0x100013AE0, symSize: 0x50 }
  - { offsetInCU: 0x1A9CB, offset: 0x1A9CB, size: 0x8, addend: 0x0, symName: __ZNKSt3__19basic_iosIcNS_11char_traitsIcEEE5rdbufB8ue170006Ev, symObjAddr: 0x12E70, symBinAddr: 0x100013B30, symSize: 0x20 }
  - { offsetInCU: 0x1A9F3, offset: 0x1A9F3, size: 0x8, addend: 0x0, symName: __ZNKSt3__18ios_base5rdbufB8ue170006Ev, symObjAddr: 0x12E90, symBinAddr: 0x100013B50, symSize: 0x20 }
  - { offsetInCU: 0x1AA19, offset: 0x1AA19, size: 0x8, addend: 0x0, symName: __ZNSt3__111char_traitsIcE11eq_int_typeB8ue170006Eii, symObjAddr: 0x12EB0, symBinAddr: 0x100013B70, symSize: 0x20 }
  - { offsetInCU: 0x1AA4C, offset: 0x1AA4C, size: 0x8, addend: 0x0, symName: __ZNSt3__111char_traitsIcE3eofB8ue170006Ev, symObjAddr: 0x12ED0, symBinAddr: 0x100013B90, symSize: 0x10 }
  - { offsetInCU: 0x1AA60, offset: 0x1AA60, size: 0x8, addend: 0x0, symName: __ZNSt3__18ios_base8setstateB8ue170006Ej, symObjAddr: 0x12EE0, symBinAddr: 0x100013BA0, symSize: 0x30 }
  - { offsetInCU: 0x1AA97, offset: 0x1AA97, size: 0x8, addend: 0x0, symName: __ZNKSt3__16vectorI4MoveNS_9allocatorIS1_EEE17__annotate_shrinkB8ue170006Em, symObjAddr: 0x12F10, symBinAddr: 0x100013BD0, symSize: 0xA0 }
  - { offsetInCU: 0x1AACC, offset: 0x1AACC, size: 0x8, addend: 0x0, symName: __ZNSt3__16vectorI4MoveNS_9allocatorIS1_EEEC2B8ue170006Ev, symObjAddr: 0x12FB0, symBinAddr: 0x100013C70, symSize: 0x50 }
  - { offsetInCU: 0x1AAF6, offset: 0x1AAF6, size: 0x8, addend: 0x0, symName: __ZNSt3__117__compressed_pairIP4MoveNS_9allocatorIS1_EEEC1B8ue170006IDnNS_18__default_init_tagEEEOT_OT0_, symObjAddr: 0x13000, symBinAddr: 0x100013CC0, symSize: 0x30 }
  - { offsetInCU: 0x1AB4E, offset: 0x1AB4E, size: 0x8, addend: 0x0, symName: __ZNSt3__117__compressed_pairIP4MoveNS_9allocatorIS1_EEEC2B8ue170006IDnNS_18__default_init_tagEEEOT_OT0_, symObjAddr: 0x13030, symBinAddr: 0x100013CF0, symSize: 0x40 }
  - { offsetInCU: 0x1ABA6, offset: 0x1ABA6, size: 0x8, addend: 0x0, symName: __ZNSt3__122__compressed_pair_elemINS_9allocatorI4MoveEELi1ELb1EEC2B8ue170006ENS_18__default_init_tagE, symObjAddr: 0x13070, symBinAddr: 0x100013D30, symSize: 0x20 }
  - { offsetInCU: 0x1ABDA, offset: 0x1ABDA, size: 0x8, addend: 0x0, symName: __ZNSt3__19allocatorI4MoveEC2B8ue170006Ev, symObjAddr: 0x13090, symBinAddr: 0x100013D50, symSize: 0x20 }
  - { offsetInCU: 0x1AC04, offset: 0x1AC04, size: 0x8, addend: 0x0, symName: __ZNSt3__116__non_trivial_ifILb1ENS_9allocatorI4MoveEEEC2B8ue170006Ev, symObjAddr: 0x130B0, symBinAddr: 0x100013D70, symSize: 0x10 }
  - { offsetInCU: 0x1AC2E, offset: 0x1AC2E, size: 0x8, addend: 0x0, symName: __ZNSt3__16vectorI4MoveNS_9allocatorIS1_EEED2B8ue170006Ev, symObjAddr: 0x130C0, symBinAddr: 0x100013D80, symSize: 0x40 }
  - { offsetInCU: 0x1AC58, offset: 0x1AC58, size: 0x8, addend: 0x0, symName: __ZNSt3__114priority_queueI7ElementNS_6vectorIS1_NS_9allocatorIS1_EEEE7CompareEC2B8ue170006Ev, symObjAddr: 0x13100, symBinAddr: 0x100013DC0, symSize: 0x20 }
  - { offsetInCU: 0x1AC82, offset: 0x1AC82, size: 0x8, addend: 0x0, symName: __ZNSt3__16vectorI7ElementNS_9allocatorIS1_EEED2B8ue170006Ev, symObjAddr: 0x13120, symBinAddr: 0x100013DE0, symSize: 0x40 }
  - { offsetInCU: 0x1ACAC, offset: 0x1ACAC, size: 0x8, addend: 0x0, symName: __ZNSt3__16vectorI7ElementNS_9allocatorIS1_EEE16__destroy_vectorC1B8ue170006ERS4_, symObjAddr: 0x13160, symBinAddr: 0x100013E20, symSize: 0x30 }
  - { offsetInCU: 0x1ACE5, offset: 0x1ACE5, size: 0x8, addend: 0x0, symName: __ZNSt3__16vectorI7ElementNS_9allocatorIS1_EEE16__destroy_vectorclB8ue170006Ev, symObjAddr: 0x13190, symBinAddr: 0x100013E50, symSize: 0x80 }
  - { offsetInCU: 0x1AD0B, offset: 0x1AD0B, size: 0x8, addend: 0x0, symName: __ZNSt3__16vectorI7ElementNS_9allocatorIS1_EEE16__destroy_vectorC2B8ue170006ERS4_, symObjAddr: 0x13210, symBinAddr: 0x100013ED0, symSize: 0x20 }
  - { offsetInCU: 0x1AD44, offset: 0x1AD44, size: 0x8, addend: 0x0, symName: __ZNSt3__16vectorI7ElementNS_9allocatorIS1_EEE7__clearB8ue170006Ev, symObjAddr: 0x13230, symBinAddr: 0x100013EF0, symSize: 0x20 }
  - { offsetInCU: 0x1AD6A, offset: 0x1AD6A, size: 0x8, addend: 0x0, symName: __ZNKSt3__16vectorI7ElementNS_9allocatorIS1_EEE17__annotate_deleteB8ue170006Ev, symObjAddr: 0x13250, symBinAddr: 0x100013F10, symSize: 0xB0 }
  - { offsetInCU: 0x1AD90, offset: 0x1AD90, size: 0x8, addend: 0x0, symName: __ZNSt3__116allocator_traitsINS_9allocatorI7ElementEEE10deallocateB8ue170006ERS3_PS2_m, symObjAddr: 0x13300, symBinAddr: 0x100013FC0, symSize: 0x30 }
  - { offsetInCU: 0x1ADD2, offset: 0x1ADD2, size: 0x8, addend: 0x0, symName: __ZNSt3__16vectorI7ElementNS_9allocatorIS1_EEE7__allocB8ue170006Ev, symObjAddr: 0x13330, symBinAddr: 0x100013FF0, symSize: 0x20 }
  - { offsetInCU: 0x1ADF8, offset: 0x1ADF8, size: 0x8, addend: 0x0, symName: __ZNKSt3__16vectorI7ElementNS_9allocatorIS1_EEE8capacityB8ue170006Ev, symObjAddr: 0x13350, symBinAddr: 0x100014010, symSize: 0x40 }
  - { offsetInCU: 0x1AE1E, offset: 0x1AE1E, size: 0x8, addend: 0x0, symName: __ZNSt3__16vectorI7ElementNS_9allocatorIS1_EEE22__base_destruct_at_endB8ue170006EPS1_, symObjAddr: 0x13390, symBinAddr: 0x100014050, symSize: 0x80 }
  - { offsetInCU: 0x1AE62, offset: 0x1AE62, size: 0x8, addend: 0x0, symName: __ZNSt3__116allocator_traitsINS_9allocatorI7ElementEEE7destroyB8ue170006IS2_vEEvRS3_PT_, symObjAddr: 0x13410, symBinAddr: 0x1000140D0, symSize: 0x30 }
  - { offsetInCU: 0x1AE9F, offset: 0x1AE9F, size: 0x8, addend: 0x0, symName: __ZNSt3__19allocatorI7ElementE7destroyB8ue170006EPS1_, symObjAddr: 0x13450, symBinAddr: 0x100014110, symSize: 0x20 }
  - { offsetInCU: 0x1AED3, offset: 0x1AED3, size: 0x8, addend: 0x0, symName: __ZNKSt3__16vectorI7ElementNS_9allocatorIS1_EEE31__annotate_contiguous_containerB8ue170006EPKvS6_S6_S6_, symObjAddr: 0x13470, symBinAddr: 0x100014130, symSize: 0x20 }
  - { offsetInCU: 0x1AF29, offset: 0x1AF29, size: 0x8, addend: 0x0, symName: __ZNKSt3__16vectorI7ElementNS_9allocatorIS1_EEE4dataB8ue170006Ev, symObjAddr: 0x13490, symBinAddr: 0x100014150, symSize: 0x20 }
  - { offsetInCU: 0x1AF4F, offset: 0x1AF4F, size: 0x8, addend: 0x0, symName: __ZNKSt3__16vectorI7ElementNS_9allocatorIS1_EEE4sizeB8ue170006Ev, symObjAddr: 0x134B0, symBinAddr: 0x100014170, symSize: 0x30 }
  - { offsetInCU: 0x1AF75, offset: 0x1AF75, size: 0x8, addend: 0x0, symName: __ZNSt3__19allocatorI7ElementE10deallocateB8ue170006EPS1_m, symObjAddr: 0x134E0, symBinAddr: 0x1000141A0, symSize: 0x50 }
  - { offsetInCU: 0x1AFB7, offset: 0x1AFB7, size: 0x8, addend: 0x0, symName: __ZNSt3__117__compressed_pairIP7ElementNS_9allocatorIS1_EEE6secondB8ue170006Ev, symObjAddr: 0x13530, symBinAddr: 0x1000141F0, symSize: 0x20 }
  - { offsetInCU: 0x1AFDD, offset: 0x1AFDD, size: 0x8, addend: 0x0, symName: __ZNSt3__122__compressed_pair_elemINS_9allocatorI7ElementEELi1ELb1EE5__getB8ue170006Ev, symObjAddr: 0x13550, symBinAddr: 0x100014210, symSize: 0x10 }
  - { offsetInCU: 0x1B003, offset: 0x1B003, size: 0x8, addend: 0x0, symName: __ZNKSt3__16vectorI7ElementNS_9allocatorIS1_EEE9__end_capB8ue170006Ev, symObjAddr: 0x13560, symBinAddr: 0x100014220, symSize: 0x20 }
  - { offsetInCU: 0x1B029, offset: 0x1B029, size: 0x8, addend: 0x0, symName: __ZNKSt3__117__compressed_pairIP7ElementNS_9allocatorIS1_EEE5firstB8ue170006Ev, symObjAddr: 0x13580, symBinAddr: 0x100014240, symSize: 0x20 }
  - { offsetInCU: 0x1B04F, offset: 0x1B04F, size: 0x8, addend: 0x0, symName: __ZNKSt3__122__compressed_pair_elemIP7ElementLi0ELb0EE5__getB8ue170006Ev, symObjAddr: 0x135A0, symBinAddr: 0x100014260, symSize: 0x10 }
  - { offsetInCU: 0x1B075, offset: 0x1B075, size: 0x8, addend: 0x0, symName: __ZNSt3__16vectorI4MoveNS_9allocatorIS1_EEE17__destruct_at_endB8ue170006EPS1_, symObjAddr: 0x135B0, symBinAddr: 0x100014270, symSize: 0x50 }
  - { offsetInCU: 0x1B0B9, offset: 0x1B0B9, size: 0x8, addend: 0x0, symName: __ZNSt3__16vectorI7ElementNS_9allocatorIS1_EEE9push_backB8ue170006EOS1_, symObjAddr: 0x13600, symBinAddr: 0x1000142C0, symSize: 0x60 }
  - { offsetInCU: 0x1B0F0, offset: 0x1B0F0, size: 0x8, addend: 0x0, symName: __ZNSt3__16vectorI7ElementNS_9allocatorIS1_EEE3endB8ue170006Ev, symObjAddr: 0x136A0, symBinAddr: 0x100014360, symSize: 0x30 }
  - { offsetInCU: 0x1B118, offset: 0x1B118, size: 0x8, addend: 0x0, symName: __ZNSt3__16vectorI7ElementNS_9allocatorIS1_EEE9__end_capB8ue170006Ev, symObjAddr: 0x136D0, symBinAddr: 0x100014390, symSize: 0x20 }
  - { offsetInCU: 0x1B143, offset: 0x1B143, size: 0x8, addend: 0x0, symName: __ZNSt3__16vectorI7ElementNS_9allocatorIS1_EEE22__construct_one_at_endB8ue170006IJS1_EEEvDpOT_, symObjAddr: 0x136F0, symBinAddr: 0x1000143B0, symSize: 0x90 }
  - { offsetInCU: 0x1B192, offset: 0x1B192, size: 0x8, addend: 0x0, symName: __ZNSt3__16vectorI7ElementNS_9allocatorIS1_EEE21__push_back_slow_pathIS1_EEvOT_, symObjAddr: 0x13780, symBinAddr: 0x100014440, symSize: 0xD0 }
  - { offsetInCU: 0x1B1F0, offset: 0x1B1F0, size: 0x8, addend: 0x0, symName: __ZNSt3__117__compressed_pairIP7ElementNS_9allocatorIS1_EEE5firstB8ue170006Ev, symObjAddr: 0x13850, symBinAddr: 0x100014510, symSize: 0x20 }
  - { offsetInCU: 0x1B216, offset: 0x1B216, size: 0x8, addend: 0x0, symName: __ZNSt3__122__compressed_pair_elemIP7ElementLi0ELb0EE5__getB8ue170006Ev, symObjAddr: 0x13870, symBinAddr: 0x100014530, symSize: 0x10 }
  - { offsetInCU: 0x1B255, offset: 0x1B255, size: 0x8, addend: 0x0, symName: __ZNSt3__16vectorI7ElementNS_9allocatorIS1_EEE21_ConstructTransactionC1B8ue170006ERS4_m, symObjAddr: 0x13880, symBinAddr: 0x100014540, symSize: 0x30 }
  - { offsetInCU: 0x1B29D, offset: 0x1B29D, size: 0x8, addend: 0x0, symName: __ZNSt3__116allocator_traitsINS_9allocatorI7ElementEEE9constructB8ue170006IS2_JS2_EvEEvRS3_PT_DpOT0_, symObjAddr: 0x138B0, symBinAddr: 0x100014570, symSize: 0x30 }
  - { offsetInCU: 0x1B2F4, offset: 0x1B2F4, size: 0x8, addend: 0x0, symName: __ZNSt3__16vectorI7ElementNS_9allocatorIS1_EEE21_ConstructTransactionD1B8ue170006Ev, symObjAddr: 0x138E0, symBinAddr: 0x1000145A0, symSize: 0x20 }
  - { offsetInCU: 0x1B31E, offset: 0x1B31E, size: 0x8, addend: 0x0, symName: __ZNSt3__16vectorI7ElementNS_9allocatorIS1_EEE21_ConstructTransactionC2B8ue170006ERS4_m, symObjAddr: 0x13900, symBinAddr: 0x1000145C0, symSize: 0x40 }
  - { offsetInCU: 0x1B366, offset: 0x1B366, size: 0x8, addend: 0x0, symName: __ZNSt3__19allocatorI7ElementE9constructB8ue170006IS1_JS1_EEEvPT_DpOT0_, symObjAddr: 0x13940, symBinAddr: 0x100014600, symSize: 0x30 }
  - { offsetInCU: 0x1B3BC, offset: 0x1B3BC, size: 0x8, addend: 0x0, symName: __ZN7ElementC1EOS_, symObjAddr: 0x13970, symBinAddr: 0x100014630, symSize: 0x30 }
  - { offsetInCU: 0x1B3F1, offset: 0x1B3F1, size: 0x8, addend: 0x0, symName: __ZN7ElementC2EOS_, symObjAddr: 0x139A0, symBinAddr: 0x100014660, symSize: 0x50 }
  - { offsetInCU: 0x1B426, offset: 0x1B426, size: 0x8, addend: 0x0, symName: __ZNSt3__16vectorI7ElementNS_9allocatorIS1_EEE21_ConstructTransactionD2B8ue170006Ev, symObjAddr: 0x139F0, symBinAddr: 0x1000146B0, symSize: 0x20 }
  - { offsetInCU: 0x1B450, offset: 0x1B450, size: 0x8, addend: 0x0, symName: __ZNKSt3__16vectorI7ElementNS_9allocatorIS1_EEE11__recommendB8ue170006Em, symObjAddr: 0x13A10, symBinAddr: 0x1000146D0, symSize: 0xA0 }
  - { offsetInCU: 0x1B4A5, offset: 0x1B4A5, size: 0x8, addend: 0x0, symName: __ZNSt3__114__split_bufferI7ElementRNS_9allocatorIS1_EEEC1EmmS4_, symObjAddr: 0x13AB0, symBinAddr: 0x100014770, symSize: 0x40 }
  - { offsetInCU: 0x1B4FB, offset: 0x1B4FB, size: 0x8, addend: 0x0, symName: __ZNSt3__114__split_bufferI7ElementRNS_9allocatorIS1_EEED1Ev, symObjAddr: 0x13C10, symBinAddr: 0x1000148D0, symSize: 0x20 }
  - { offsetInCU: 0x1B527, offset: 0x1B527, size: 0x8, addend: 0x0, symName: __ZNKSt3__16vectorI7ElementNS_9allocatorIS1_EEE8max_sizeEv, symObjAddr: 0x13C30, symBinAddr: 0x1000148F0, symSize: 0x60 }
  - { offsetInCU: 0x1B54F, offset: 0x1B54F, size: 0x8, addend: 0x0, symName: __ZNKSt3__16vectorI7ElementNS_9allocatorIS1_EEE20__throw_length_errorB8ue170006Ev, symObjAddr: 0x13C90, symBinAddr: 0x100014950, symSize: 0x20 }
  - { offsetInCU: 0x1B57F, offset: 0x1B57F, size: 0x8, addend: 0x0, symName: __ZNSt3__116allocator_traitsINS_9allocatorI7ElementEEE8max_sizeB8ue170006IS3_vEEmRKS3_, symObjAddr: 0x13CE0, symBinAddr: 0x1000149A0, symSize: 0x20 }
  - { offsetInCU: 0x1B5AD, offset: 0x1B5AD, size: 0x8, addend: 0x0, symName: __ZNKSt3__16vectorI7ElementNS_9allocatorIS1_EEE7__allocB8ue170006Ev, symObjAddr: 0x13D00, symBinAddr: 0x1000149C0, symSize: 0x20 }
  - { offsetInCU: 0x1B5D3, offset: 0x1B5D3, size: 0x8, addend: 0x0, symName: __ZNKSt3__19allocatorI7ElementE8max_sizeB8ue170006Ev, symObjAddr: 0x13D20, symBinAddr: 0x1000149E0, symSize: 0x20 }
  - { offsetInCU: 0x1B5F9, offset: 0x1B5F9, size: 0x8, addend: 0x0, symName: __ZNKSt3__117__compressed_pairIP7ElementNS_9allocatorIS1_EEE6secondB8ue170006Ev, symObjAddr: 0x13D40, symBinAddr: 0x100014A00, symSize: 0x20 }
  - { offsetInCU: 0x1B61F, offset: 0x1B61F, size: 0x8, addend: 0x0, symName: __ZNKSt3__122__compressed_pair_elemINS_9allocatorI7ElementEELi1ELb1EE5__getB8ue170006Ev, symObjAddr: 0x13D60, symBinAddr: 0x100014A20, symSize: 0x10 }
  - { offsetInCU: 0x1B645, offset: 0x1B645, size: 0x8, addend: 0x0, symName: __ZNSt3__114__split_bufferI7ElementRNS_9allocatorIS1_EEEC2EmmS4_, symObjAddr: 0x13DC0, symBinAddr: 0x100014A80, symSize: 0xC0 }
  - { offsetInCU: 0x1B6B9, offset: 0x1B6B9, size: 0x8, addend: 0x0, symName: __ZNSt3__117__compressed_pairIP7ElementRNS_9allocatorIS1_EEEC1B8ue170006IDnS5_EEOT_OT0_, symObjAddr: 0x13E80, symBinAddr: 0x100014B40, symSize: 0x30 }
  - { offsetInCU: 0x1B711, offset: 0x1B711, size: 0x8, addend: 0x0, symName: __ZNSt3__114__split_bufferI7ElementRNS_9allocatorIS1_EEE7__allocB8ue170006Ev, symObjAddr: 0x13EF0, symBinAddr: 0x100014BB0, symSize: 0x20 }
  - { offsetInCU: 0x1B737, offset: 0x1B737, size: 0x8, addend: 0x0, symName: __ZNSt3__114__split_bufferI7ElementRNS_9allocatorIS1_EEE9__end_capB8ue170006Ev, symObjAddr: 0x13F10, symBinAddr: 0x100014BD0, symSize: 0x20 }
  - { offsetInCU: 0x1B75D, offset: 0x1B75D, size: 0x8, addend: 0x0, symName: __ZNSt3__117__compressed_pairIP7ElementRNS_9allocatorIS1_EEEC2B8ue170006IDnS5_EEOT_OT0_, symObjAddr: 0x13F30, symBinAddr: 0x100014BF0, symSize: 0x40 }
  - { offsetInCU: 0x1B7B5, offset: 0x1B7B5, size: 0x8, addend: 0x0, symName: __ZNSt3__122__compressed_pair_elemIP7ElementLi0ELb0EEC2B8ue170006IDnvEEOT_, symObjAddr: 0x13F70, symBinAddr: 0x100014C30, symSize: 0x20 }
  - { offsetInCU: 0x1B7F7, offset: 0x1B7F7, size: 0x8, addend: 0x0, symName: __ZNSt3__122__compressed_pair_elemIRNS_9allocatorI7ElementEELi1ELb0EEC2B8ue170006IS4_vEEOT_, symObjAddr: 0x13F90, symBinAddr: 0x100014C50, symSize: 0x20 }
  - { offsetInCU: 0x1B839, offset: 0x1B839, size: 0x8, addend: 0x0, symName: __ZNSt3__19allocatorI7ElementE8allocateB8ue170006Em, symObjAddr: 0x13FB0, symBinAddr: 0x100014C70, symSize: 0x50 }
  - { offsetInCU: 0x1B86D, offset: 0x1B86D, size: 0x8, addend: 0x0, symName: __ZNSt3__117__compressed_pairIP7ElementRNS_9allocatorIS1_EEE6secondB8ue170006Ev, symObjAddr: 0x14000, symBinAddr: 0x100014CC0, symSize: 0x20 }
  - { offsetInCU: 0x1B893, offset: 0x1B893, size: 0x8, addend: 0x0, symName: __ZNSt3__122__compressed_pair_elemIRNS_9allocatorI7ElementEELi1ELb0EE5__getB8ue170006Ev, symObjAddr: 0x14020, symBinAddr: 0x100014CE0, symSize: 0x20 }
  - { offsetInCU: 0x1B8B9, offset: 0x1B8B9, size: 0x8, addend: 0x0, symName: __ZNSt3__117__compressed_pairIP7ElementRNS_9allocatorIS1_EEE5firstB8ue170006Ev, symObjAddr: 0x14040, symBinAddr: 0x100014D00, symSize: 0x20 }
  - { offsetInCU: 0x1B8DF, offset: 0x1B8DF, size: 0x8, addend: 0x0, symName: __ZNSt3__116reverse_iteratorIP7ElementEC1B8ue170006ES2_, symObjAddr: 0x141E0, symBinAddr: 0x100014EA0, symSize: 0x30 }
  - { offsetInCU: 0x1B917, offset: 0x1B917, size: 0x8, addend: 0x0, symName: __ZNKSt3__116reverse_iteratorIP7ElementE4baseB8ue170006Ev, symObjAddr: 0x14210, symBinAddr: 0x100014ED0, symSize: 0x20 }
  - { offsetInCU: 0x1B93D, offset: 0x1B93D, size: 0x8, addend: 0x0, symName: __ZNKSt3__16vectorI7ElementNS_9allocatorIS1_EEE14__annotate_newB8ue170006Em, symObjAddr: 0x14270, symBinAddr: 0x100014F30, symSize: 0xA0 }
  - { offsetInCU: 0x1B972, offset: 0x1B972, size: 0x8, addend: 0x0, symName: __ZNSt3__129_AllocatorDestroyRangeReverseINS_9allocatorI7ElementEENS_16reverse_iteratorIPS2_EEEC1B8ue170006ERS3_RS6_S9_, symObjAddr: 0x14370, symBinAddr: 0x100015030, symSize: 0x40 }
  - { offsetInCU: 0x1B9C9, offset: 0x1B9C9, size: 0x8, addend: 0x0, symName: __ZNKSt3__116reverse_iteratorIP7ElementEdeB8ue170006Ev, symObjAddr: 0x14410, symBinAddr: 0x1000150D0, symSize: 0x30 }
  - { offsetInCU: 0x1B9FD, offset: 0x1B9FD, size: 0x8, addend: 0x0, symName: __ZNSt3__116reverse_iteratorIP7ElementEppB8ue170006Ev, symObjAddr: 0x14440, symBinAddr: 0x100015100, symSize: 0x20 }
  - { offsetInCU: 0x1BA23, offset: 0x1BA23, size: 0x8, addend: 0x0, symName: __ZNSt3__128__exception_guard_exceptionsINS_29_AllocatorDestroyRangeReverseINS_9allocatorI7ElementEENS_16reverse_iteratorIPS3_EEEEE10__completeB8ue170006Ev, symObjAddr: 0x14460, symBinAddr: 0x100015120, symSize: 0x20 }
  - { offsetInCU: 0x1BA49, offset: 0x1BA49, size: 0x8, addend: 0x0, symName: __ZNSt3__128__exception_guard_exceptionsINS_29_AllocatorDestroyRangeReverseINS_9allocatorI7ElementEENS_16reverse_iteratorIPS3_EEEEED1B8ue170006Ev, symObjAddr: 0x14480, symBinAddr: 0x100015140, symSize: 0x20 }
  - { offsetInCU: 0x1BA73, offset: 0x1BA73, size: 0x8, addend: 0x0, symName: __ZNSt3__128__exception_guard_exceptionsINS_29_AllocatorDestroyRangeReverseINS_9allocatorI7ElementEENS_16reverse_iteratorIPS3_EEEEEC1B8ue170006ES8_, symObjAddr: 0x144A0, symBinAddr: 0x100015160, symSize: 0x40 }
  - { offsetInCU: 0x1BAAB, offset: 0x1BAAB, size: 0x8, addend: 0x0, symName: __ZNSt3__128__exception_guard_exceptionsINS_29_AllocatorDestroyRangeReverseINS_9allocatorI7ElementEENS_16reverse_iteratorIPS3_EEEEEC2B8ue170006ES8_, symObjAddr: 0x144E0, symBinAddr: 0x1000151A0, symSize: 0x30 }
  - { offsetInCU: 0x1BAE3, offset: 0x1BAE3, size: 0x8, addend: 0x0, symName: __ZNSt3__129_AllocatorDestroyRangeReverseINS_9allocatorI7ElementEENS_16reverse_iteratorIPS2_EEEC2B8ue170006ERS3_RS6_S9_, symObjAddr: 0x14510, symBinAddr: 0x1000151D0, symSize: 0x40 }
  - { offsetInCU: 0x1BB3F, offset: 0x1BB3F, size: 0x8, addend: 0x0, symName: __ZNSt3__119__to_address_helperINS_16reverse_iteratorIP7ElementEEvE6__callB8ue170006ERKS4_, symObjAddr: 0x14550, symBinAddr: 0x100015210, symSize: 0x40 }
  - { offsetInCU: 0x1BB62, offset: 0x1BB62, size: 0x8, addend: 0x0, symName: __ZNKSt3__116reverse_iteratorIP7ElementEptB8ue170006Ev, symObjAddr: 0x14590, symBinAddr: 0x100015250, symSize: 0x20 }
  - { offsetInCU: 0x1BB88, offset: 0x1BB88, size: 0x8, addend: 0x0, symName: __ZNSt3__128__exception_guard_exceptionsINS_29_AllocatorDestroyRangeReverseINS_9allocatorI7ElementEENS_16reverse_iteratorIPS3_EEEEED2B8ue170006Ev, symObjAddr: 0x145B0, symBinAddr: 0x100015270, symSize: 0x40 }
  - { offsetInCU: 0x1BBB2, offset: 0x1BBB2, size: 0x8, addend: 0x0, symName: __ZNKSt3__129_AllocatorDestroyRangeReverseINS_9allocatorI7ElementEENS_16reverse_iteratorIPS2_EEEclB8ue170006Ev, symObjAddr: 0x145F0, symBinAddr: 0x1000152B0, symSize: 0xF0 }
  - { offsetInCU: 0x1BBD9, offset: 0x1BBD9, size: 0x8, addend: 0x0, symName: __ZNSt3__116reverse_iteratorINS0_IP7ElementEEEC1B8ue170006ES3_, symObjAddr: 0x14750, symBinAddr: 0x100015410, symSize: 0x30 }
  - { offsetInCU: 0x1BC11, offset: 0x1BC11, size: 0x8, addend: 0x0, symName: __ZNSt3__116reverse_iteratorINS0_IP7ElementEEEppB8ue170006Ev, symObjAddr: 0x147F0, symBinAddr: 0x1000154B0, symSize: 0x30 }
  - { offsetInCU: 0x1BC37, offset: 0x1BC37, size: 0x8, addend: 0x0, symName: __ZNKSt3__116reverse_iteratorINS0_IP7ElementEEE4baseB8ue170006Ev, symObjAddr: 0x14820, symBinAddr: 0x1000154E0, symSize: 0x20 }
  - { offsetInCU: 0x1BC62, offset: 0x1BC62, size: 0x8, addend: 0x0, symName: __ZNSt3__119__to_address_helperINS_16reverse_iteratorINS1_IP7ElementEEEEvE6__callB8ue170006ERKS5_, symObjAddr: 0x14840, symBinAddr: 0x100015500, symSize: 0x40 }
  - { offsetInCU: 0x1BC85, offset: 0x1BC85, size: 0x8, addend: 0x0, symName: __ZNKSt3__116reverse_iteratorINS0_IP7ElementEEEptB8ue170006Ev, symObjAddr: 0x14880, symBinAddr: 0x100015540, symSize: 0x20 }
  - { offsetInCU: 0x1BCAB, offset: 0x1BCAB, size: 0x8, addend: 0x0, symName: __ZNKSt3__116reverse_iteratorINS0_IP7ElementEEEdeB8ue170006Ev, symObjAddr: 0x148A0, symBinAddr: 0x100015560, symSize: 0x40 }
  - { offsetInCU: 0x1BCDF, offset: 0x1BCDF, size: 0x8, addend: 0x0, symName: __ZNSt3__116reverse_iteratorIP7ElementEmmB8ue170006Ev, symObjAddr: 0x148E0, symBinAddr: 0x1000155A0, symSize: 0x20 }
  - { offsetInCU: 0x1BD05, offset: 0x1BD05, size: 0x8, addend: 0x0, symName: __ZNSt3__116reverse_iteratorINS0_IP7ElementEEEC2B8ue170006ES3_, symObjAddr: 0x14900, symBinAddr: 0x1000155C0, symSize: 0x40 }
  - { offsetInCU: 0x1BD3D, offset: 0x1BD3D, size: 0x8, addend: 0x0, symName: __ZNSt3__116reverse_iteratorIP7ElementEC2B8ue170006ES2_, symObjAddr: 0x14940, symBinAddr: 0x100015600, symSize: 0x30 }
  - { offsetInCU: 0x1BD75, offset: 0x1BD75, size: 0x8, addend: 0x0, symName: __ZNSt3__114__split_bufferI7ElementRNS_9allocatorIS1_EEED2Ev, symObjAddr: 0x14970, symBinAddr: 0x100015630, symSize: 0x70 }
  - { offsetInCU: 0x1BDA1, offset: 0x1BDA1, size: 0x8, addend: 0x0, symName: __ZNSt3__114__split_bufferI7ElementRNS_9allocatorIS1_EEE5clearB8ue170006Ev, symObjAddr: 0x149E0, symBinAddr: 0x1000156A0, symSize: 0x20 }
  - { offsetInCU: 0x1BDC7, offset: 0x1BDC7, size: 0x8, addend: 0x0, symName: __ZNKSt3__114__split_bufferI7ElementRNS_9allocatorIS1_EEE8capacityB8ue170006Ev, symObjAddr: 0x14A00, symBinAddr: 0x1000156C0, symSize: 0x40 }
  - { offsetInCU: 0x1BDED, offset: 0x1BDED, size: 0x8, addend: 0x0, symName: __ZNSt3__114__split_bufferI7ElementRNS_9allocatorIS1_EEE17__destruct_at_endB8ue170006EPS1_, symObjAddr: 0x14A40, symBinAddr: 0x100015700, symSize: 0x30 }
  - { offsetInCU: 0x1BE21, offset: 0x1BE21, size: 0x8, addend: 0x0, symName: __ZNSt3__114__split_bufferI7ElementRNS_9allocatorIS1_EEE17__destruct_at_endB8ue170006EPS1_NS_17integral_constantIbLb0EEE, symObjAddr: 0x14A70, symBinAddr: 0x100015730, symSize: 0x80 }
  - { offsetInCU: 0x1BE61, offset: 0x1BE61, size: 0x8, addend: 0x0, symName: __ZNKSt3__114__split_bufferI7ElementRNS_9allocatorIS1_EEE9__end_capB8ue170006Ev, symObjAddr: 0x14AF0, symBinAddr: 0x1000157B0, symSize: 0x20 }
  - { offsetInCU: 0x1BE87, offset: 0x1BE87, size: 0x8, addend: 0x0, symName: __ZNKSt3__117__compressed_pairIP7ElementRNS_9allocatorIS1_EEE5firstB8ue170006Ev, symObjAddr: 0x14B10, symBinAddr: 0x1000157D0, symSize: 0x20 }
  - { offsetInCU: 0x1BEAD, offset: 0x1BEAD, size: 0x8, addend: 0x0, symName: __ZNKSt3__111__wrap_iterIP7ElementE4baseB8ue170006Ev, symObjAddr: 0x14D70, symBinAddr: 0x100015A30, symSize: 0x20 }
  - { offsetInCU: 0x1BED3, offset: 0x1BED3, size: 0x8, addend: 0x0, symName: __ZNK7CompareclERK7ElementS2_, symObjAddr: 0x14D90, symBinAddr: 0x100015A50, symSize: 0x30 }
  - { offsetInCU: 0x1BF15, offset: 0x1BF15, size: 0x8, addend: 0x0, symName: __ZNKSt3__111__wrap_iterIP7ElementEdeB8ue170006Ev, symObjAddr: 0x14DC0, symBinAddr: 0x100015A80, symSize: 0x20 }
  - { offsetInCU: 0x1BF3B, offset: 0x1BF3B, size: 0x8, addend: 0x0, symName: __ZNSt3__111__wrap_iterIP7ElementEmmB8ue170006Ev, symObjAddr: 0x14DE0, symBinAddr: 0x100015AA0, symSize: 0x20 }
  - { offsetInCU: 0x1BF61, offset: 0x1BF61, size: 0x8, addend: 0x0, symName: __ZNSt3__18_IterOpsINS_17_ClassicAlgPolicyEE11__iter_moveB8ue170006IRNS_11__wrap_iterIP7ElementEEEENS_9enable_ifIXsr12is_referenceIDTdeclsr3stdE7declvalIRT_EEEEE5valueEDTclsr3stdE4movedeclsr3stdE7declvalISB_EEEEE4typeEOSA_, symObjAddr: 0x14E00, symBinAddr: 0x100015AC0, symSize: 0x20 }
  - { offsetInCU: 0x1BF8D, offset: 0x1BF8D, size: 0x8, addend: 0x0, symName: __ZN7ElementaSEOS_, symObjAddr: 0x14E20, symBinAddr: 0x100015AE0, symSize: 0x50 }
  - { offsetInCU: 0x1BFBE, offset: 0x1BFBE, size: 0x8, addend: 0x0, symName: __ZNSt3__18_IterOpsINS_17_ClassicAlgPolicyEE25__validate_iter_referenceB8ue170006IRNS_11__wrap_iterIP7ElementEEEEvv, symObjAddr: 0x14E70, symBinAddr: 0x100015B30, symSize: 0x10 }
  - { offsetInCU: 0x1BFDC, offset: 0x1BFDC, size: 0x8, addend: 0x0, symName: __ZNSt3__16vectorI7ElementNS_9allocatorIS1_EEE11__make_iterB8ue170006EPS1_, symObjAddr: 0x14E80, symBinAddr: 0x100015B40, symSize: 0x30 }
  - { offsetInCU: 0x1C011, offset: 0x1C011, size: 0x8, addend: 0x0, symName: __ZNSt3__111__wrap_iterIP7ElementEC1B8ue170006ES2_, symObjAddr: 0x14EB0, symBinAddr: 0x100015B70, symSize: 0x30 }
  - { offsetInCU: 0x1C049, offset: 0x1C049, size: 0x8, addend: 0x0, symName: __ZNSt3__111__wrap_iterIP7ElementEC2B8ue170006ES2_, symObjAddr: 0x14EE0, symBinAddr: 0x100015BA0, symSize: 0x20 }
  - { offsetInCU: 0x1C086, offset: 0x1C086, size: 0x8, addend: 0x0, symName: __ZNSt3__16vectorI4MoveNS_9allocatorIS1_EEE22__construct_one_at_endB8ue170006IJS1_EEEvDpOT_, symObjAddr: 0x14F00, symBinAddr: 0x100015BC0, symSize: 0x90 }
  - { offsetInCU: 0x1C0D5, offset: 0x1C0D5, size: 0x8, addend: 0x0, symName: __ZNSt3__16vectorI4MoveNS_9allocatorIS1_EEE21__push_back_slow_pathIS1_EEvOT_, symObjAddr: 0x14F90, symBinAddr: 0x100015C50, symSize: 0xD0 }
  - { offsetInCU: 0x1C133, offset: 0x1C133, size: 0x8, addend: 0x0, symName: __ZNSt3__116allocator_traitsINS_9allocatorI4MoveEEE9constructB8ue170006IS2_JS2_EvEEvRS3_PT_DpOT0_, symObjAddr: 0x15060, symBinAddr: 0x100015D20, symSize: 0x30 }
  - { offsetInCU: 0x1C18A, offset: 0x1C18A, size: 0x8, addend: 0x0, symName: __ZNSt3__19allocatorI4MoveE9constructB8ue170006IS1_JS1_EEEvPT_DpOT0_, symObjAddr: 0x15090, symBinAddr: 0x100015D50, symSize: 0x30 }
  - { offsetInCU: 0x1C1E0, offset: 0x1C1E0, size: 0x8, addend: 0x0, symName: __ZN4MoveC1EOS_, symObjAddr: 0x150C0, symBinAddr: 0x100015D80, symSize: 0x30 }
  - { offsetInCU: 0x1C215, offset: 0x1C215, size: 0x8, addend: 0x0, symName: __ZN4MoveC2EOS_, symObjAddr: 0x150F0, symBinAddr: 0x100015DB0, symSize: 0x50 }
  - { offsetInCU: 0x1C24A, offset: 0x1C24A, size: 0x8, addend: 0x0, symName: __ZNKSt3__16vectorI4MoveNS_9allocatorIS1_EEE11__recommendB8ue170006Em, symObjAddr: 0x15140, symBinAddr: 0x100015E00, symSize: 0xA0 }
  - { offsetInCU: 0x1C29F, offset: 0x1C29F, size: 0x8, addend: 0x0, symName: __ZNSt3__114__split_bufferI4MoveRNS_9allocatorIS1_EEEC1EmmS4_, symObjAddr: 0x151E0, symBinAddr: 0x100015EA0, symSize: 0x40 }
  - { offsetInCU: 0x1C2F5, offset: 0x1C2F5, size: 0x8, addend: 0x0, symName: __ZNSt3__114__split_bufferI4MoveRNS_9allocatorIS1_EEED1Ev, symObjAddr: 0x15340, symBinAddr: 0x100016000, symSize: 0x20 }
  - { offsetInCU: 0x1C321, offset: 0x1C321, size: 0x8, addend: 0x0, symName: __ZNSt3__114__split_bufferI4MoveRNS_9allocatorIS1_EEEC2EmmS4_, symObjAddr: 0x15360, symBinAddr: 0x100016020, symSize: 0xC0 }
  - { offsetInCU: 0x1C395, offset: 0x1C395, size: 0x8, addend: 0x0, symName: __ZNSt3__117__compressed_pairIP4MoveRNS_9allocatorIS1_EEEC1B8ue170006IDnS5_EEOT_OT0_, symObjAddr: 0x15420, symBinAddr: 0x1000160E0, symSize: 0x30 }
  - { offsetInCU: 0x1C3ED, offset: 0x1C3ED, size: 0x8, addend: 0x0, symName: __ZNSt3__114__split_bufferI4MoveRNS_9allocatorIS1_EEE7__allocB8ue170006Ev, symObjAddr: 0x15450, symBinAddr: 0x100016110, symSize: 0x20 }
  - { offsetInCU: 0x1C413, offset: 0x1C413, size: 0x8, addend: 0x0, symName: __ZNSt3__114__split_bufferI4MoveRNS_9allocatorIS1_EEE9__end_capB8ue170006Ev, symObjAddr: 0x15470, symBinAddr: 0x100016130, symSize: 0x20 }
  - { offsetInCU: 0x1C439, offset: 0x1C439, size: 0x8, addend: 0x0, symName: __ZNSt3__117__compressed_pairIP4MoveRNS_9allocatorIS1_EEEC2B8ue170006IDnS5_EEOT_OT0_, symObjAddr: 0x15490, symBinAddr: 0x100016150, symSize: 0x40 }
  - { offsetInCU: 0x1C491, offset: 0x1C491, size: 0x8, addend: 0x0, symName: __ZNSt3__122__compressed_pair_elemIRNS_9allocatorI4MoveEELi1ELb0EEC2B8ue170006IS4_vEEOT_, symObjAddr: 0x154D0, symBinAddr: 0x100016190, symSize: 0x20 }
  - { offsetInCU: 0x1C4D3, offset: 0x1C4D3, size: 0x8, addend: 0x0, symName: __ZNSt3__117__compressed_pairIP4MoveRNS_9allocatorIS1_EEE6secondB8ue170006Ev, symObjAddr: 0x154F0, symBinAddr: 0x1000161B0, symSize: 0x20 }
  - { offsetInCU: 0x1C4F9, offset: 0x1C4F9, size: 0x8, addend: 0x0, symName: __ZNSt3__122__compressed_pair_elemIRNS_9allocatorI4MoveEELi1ELb0EE5__getB8ue170006Ev, symObjAddr: 0x15510, symBinAddr: 0x1000161D0, symSize: 0x20 }
  - { offsetInCU: 0x1C51F, offset: 0x1C51F, size: 0x8, addend: 0x0, symName: __ZNSt3__117__compressed_pairIP4MoveRNS_9allocatorIS1_EEE5firstB8ue170006Ev, symObjAddr: 0x15530, symBinAddr: 0x1000161F0, symSize: 0x20 }
  - { offsetInCU: 0x1C545, offset: 0x1C545, size: 0x8, addend: 0x0, symName: __ZNSt3__129_AllocatorDestroyRangeReverseINS_9allocatorI4MoveEENS_16reverse_iteratorIPS2_EEEC1B8ue170006ERS3_RS6_S9_, symObjAddr: 0x15760, symBinAddr: 0x100016420, symSize: 0x40 }
  - { offsetInCU: 0x1C59C, offset: 0x1C59C, size: 0x8, addend: 0x0, symName: __ZNSt3__128__exception_guard_exceptionsINS_29_AllocatorDestroyRangeReverseINS_9allocatorI4MoveEENS_16reverse_iteratorIPS3_EEEEE10__completeB8ue170006Ev, symObjAddr: 0x157A0, symBinAddr: 0x100016460, symSize: 0x20 }
  - { offsetInCU: 0x1C5C2, offset: 0x1C5C2, size: 0x8, addend: 0x0, symName: __ZNSt3__128__exception_guard_exceptionsINS_29_AllocatorDestroyRangeReverseINS_9allocatorI4MoveEENS_16reverse_iteratorIPS3_EEEEED1B8ue170006Ev, symObjAddr: 0x157C0, symBinAddr: 0x100016480, symSize: 0x20 }
  - { offsetInCU: 0x1C5EC, offset: 0x1C5EC, size: 0x8, addend: 0x0, symName: __ZNSt3__128__exception_guard_exceptionsINS_29_AllocatorDestroyRangeReverseINS_9allocatorI4MoveEENS_16reverse_iteratorIPS3_EEEEEC1B8ue170006ES8_, symObjAddr: 0x157E0, symBinAddr: 0x1000164A0, symSize: 0x40 }
  - { offsetInCU: 0x1C624, offset: 0x1C624, size: 0x8, addend: 0x0, symName: __ZNSt3__128__exception_guard_exceptionsINS_29_AllocatorDestroyRangeReverseINS_9allocatorI4MoveEENS_16reverse_iteratorIPS3_EEEEEC2B8ue170006ES8_, symObjAddr: 0x15820, symBinAddr: 0x1000164E0, symSize: 0x30 }
  - { offsetInCU: 0x1C65C, offset: 0x1C65C, size: 0x8, addend: 0x0, symName: __ZNSt3__129_AllocatorDestroyRangeReverseINS_9allocatorI4MoveEENS_16reverse_iteratorIPS2_EEEC2B8ue170006ERS3_RS6_S9_, symObjAddr: 0x15850, symBinAddr: 0x100016510, symSize: 0x40 }
  - { offsetInCU: 0x1C6B3, offset: 0x1C6B3, size: 0x8, addend: 0x0, symName: __ZNSt3__128__exception_guard_exceptionsINS_29_AllocatorDestroyRangeReverseINS_9allocatorI4MoveEENS_16reverse_iteratorIPS3_EEEEED2B8ue170006Ev, symObjAddr: 0x15890, symBinAddr: 0x100016550, symSize: 0x40 }
  - { offsetInCU: 0x1C6DD, offset: 0x1C6DD, size: 0x8, addend: 0x0, symName: __ZNKSt3__129_AllocatorDestroyRangeReverseINS_9allocatorI4MoveEENS_16reverse_iteratorIPS2_EEEclB8ue170006Ev, symObjAddr: 0x158D0, symBinAddr: 0x100016590, symSize: 0xF0 }
  - { offsetInCU: 0x1C704, offset: 0x1C704, size: 0x8, addend: 0x0, symName: __ZNSt3__116reverse_iteratorINS0_IP4MoveEEEC1B8ue170006ES3_, symObjAddr: 0x15A30, symBinAddr: 0x1000166F0, symSize: 0x30 }
  - { offsetInCU: 0x1C73C, offset: 0x1C73C, size: 0x8, addend: 0x0, symName: __ZNSt3__116reverse_iteratorINS0_IP4MoveEEEppB8ue170006Ev, symObjAddr: 0x15AD0, symBinAddr: 0x100016790, symSize: 0x30 }
  - { offsetInCU: 0x1C762, offset: 0x1C762, size: 0x8, addend: 0x0, symName: __ZNKSt3__116reverse_iteratorINS0_IP4MoveEEE4baseB8ue170006Ev, symObjAddr: 0x15B00, symBinAddr: 0x1000167C0, symSize: 0x20 }
  - { offsetInCU: 0x1C78D, offset: 0x1C78D, size: 0x8, addend: 0x0, symName: __ZNSt3__119__to_address_helperINS_16reverse_iteratorINS1_IP4MoveEEEEvE6__callB8ue170006ERKS5_, symObjAddr: 0x15B20, symBinAddr: 0x1000167E0, symSize: 0x40 }
  - { offsetInCU: 0x1C7B0, offset: 0x1C7B0, size: 0x8, addend: 0x0, symName: __ZNKSt3__116reverse_iteratorINS0_IP4MoveEEEptB8ue170006Ev, symObjAddr: 0x15B60, symBinAddr: 0x100016820, symSize: 0x20 }
  - { offsetInCU: 0x1C7D6, offset: 0x1C7D6, size: 0x8, addend: 0x0, symName: __ZNKSt3__116reverse_iteratorINS0_IP4MoveEEEdeB8ue170006Ev, symObjAddr: 0x15B80, symBinAddr: 0x100016840, symSize: 0x40 }
  - { offsetInCU: 0x1C80A, offset: 0x1C80A, size: 0x8, addend: 0x0, symName: __ZNSt3__116reverse_iteratorIP4MoveEmmB8ue170006Ev, symObjAddr: 0x15BC0, symBinAddr: 0x100016880, symSize: 0x20 }
  - { offsetInCU: 0x1C830, offset: 0x1C830, size: 0x8, addend: 0x0, symName: __ZNSt3__116reverse_iteratorINS0_IP4MoveEEEC2B8ue170006ES3_, symObjAddr: 0x15BE0, symBinAddr: 0x1000168A0, symSize: 0x40 }
  - { offsetInCU: 0x1C868, offset: 0x1C868, size: 0x8, addend: 0x0, symName: __ZNSt3__114__split_bufferI4MoveRNS_9allocatorIS1_EEED2Ev, symObjAddr: 0x15C20, symBinAddr: 0x1000168E0, symSize: 0x70 }
  - { offsetInCU: 0x1C894, offset: 0x1C894, size: 0x8, addend: 0x0, symName: __ZNSt3__114__split_bufferI4MoveRNS_9allocatorIS1_EEE5clearB8ue170006Ev, symObjAddr: 0x15C90, symBinAddr: 0x100016950, symSize: 0x20 }
  - { offsetInCU: 0x1C8BA, offset: 0x1C8BA, size: 0x8, addend: 0x0, symName: __ZNKSt3__114__split_bufferI4MoveRNS_9allocatorIS1_EEE8capacityB8ue170006Ev, symObjAddr: 0x15CB0, symBinAddr: 0x100016970, symSize: 0x40 }
  - { offsetInCU: 0x1C8E0, offset: 0x1C8E0, size: 0x8, addend: 0x0, symName: __ZNSt3__114__split_bufferI4MoveRNS_9allocatorIS1_EEE17__destruct_at_endB8ue170006EPS1_, symObjAddr: 0x15CF0, symBinAddr: 0x1000169B0, symSize: 0x30 }
  - { offsetInCU: 0x1C914, offset: 0x1C914, size: 0x8, addend: 0x0, symName: __ZNSt3__114__split_bufferI4MoveRNS_9allocatorIS1_EEE17__destruct_at_endB8ue170006EPS1_NS_17integral_constantIbLb0EEE, symObjAddr: 0x15D20, symBinAddr: 0x1000169E0, symSize: 0x80 }
  - { offsetInCU: 0x1C954, offset: 0x1C954, size: 0x8, addend: 0x0, symName: __ZNKSt3__114__split_bufferI4MoveRNS_9allocatorIS1_EEE9__end_capB8ue170006Ev, symObjAddr: 0x15DA0, symBinAddr: 0x100016A60, symSize: 0x20 }
  - { offsetInCU: 0x1C97A, offset: 0x1C97A, size: 0x8, addend: 0x0, symName: __ZNKSt3__117__compressed_pairIP4MoveRNS_9allocatorIS1_EEE5firstB8ue170006Ev, symObjAddr: 0x15DC0, symBinAddr: 0x100016A80, symSize: 0x20 }
  - { offsetInCU: 0x1C9A0, offset: 0x1C9A0, size: 0x8, addend: 0x0, symName: __ZNSt3__15dequeIP7CommandNS_9allocatorIS2_EEE4backEv, symObjAddr: 0x15DE0, symBinAddr: 0x100016AA0, symSize: 0x60 }
  - { offsetInCU: 0x1C9D7, offset: 0x1C9D7, size: 0x8, addend: 0x0, symName: __ZNSt3__15dequeIP7CommandNS_9allocatorIS2_EEE8pop_backEv, symObjAddr: 0x15E40, symBinAddr: 0x100016B00, symSize: 0xC0 }
  - { offsetInCU: 0x1CA3B, offset: 0x1CA3B, size: 0x8, addend: 0x0, symName: __ZNKSt3__15dequeIP7CommandNS_9allocatorIS2_EEE22__annotate_shrink_backB8ue170006Emm, symObjAddr: 0x15F00, symBinAddr: 0x100016BC0, symSize: 0x50 }
  - { offsetInCU: 0x1CA7F, offset: 0x1CA7F, size: 0x8, addend: 0x0, symName: __ZNSt3__15dequeIP7CommandNS_9allocatorIS2_EEE25__maybe_remove_back_spareB8ue170006Eb, symObjAddr: 0x15F50, symBinAddr: 0x100016C10, symSize: 0xB0 }
  - { offsetInCU: 0x1CAB4, offset: 0x1CAB4, size: 0x8, addend: 0x0, symName: __ZNKSt3__15dequeIP7CommandNS_9allocatorIS2_EEE19__back_spare_blocksB8ue170006Ev, symObjAddr: 0x16000, symBinAddr: 0x100016CC0, symSize: 0x20 }
  - { offsetInCU: 0x1CADA, offset: 0x1CADA, size: 0x8, addend: 0x0, symName: __ZNSt3__114__split_bufferIPP7CommandNS_9allocatorIS3_EEE4backB8ue170006Ev, symObjAddr: 0x16020, symBinAddr: 0x100016CE0, symSize: 0x20 }
  - { offsetInCU: 0x1CB00, offset: 0x1CB00, size: 0x8, addend: 0x0, symName: __ZNSt3__114__split_bufferIPP7CommandNS_9allocatorIS3_EEE8pop_backB8ue170006Ev, symObjAddr: 0x16040, symBinAddr: 0x100016D00, symSize: 0x30 }
  - { offsetInCU: 0x1CB26, offset: 0x1CB26, size: 0x8, addend: 0x0, symName: __ZNKSt3__15dequeIP7CommandNS_9allocatorIS2_EEE12__back_spareB8ue170006Ev, symObjAddr: 0x16070, symBinAddr: 0x100016D30, symSize: 0x50 }
  - { offsetInCU: 0x1CB4C, offset: 0x1CB4C, size: 0x8, addend: 0x0, symName: __ZNKSt3__15dequeIP7CommandNS_9allocatorIS2_EEE10__capacityB8ue170006Ev, symObjAddr: 0x160C0, symBinAddr: 0x100016D80, symSize: 0x50 }
  - { offsetInCU: 0x1CB72, offset: 0x1CB72, size: 0x8, addend: 0x0, symName: __ZNSt3__15dequeIP7CommandNS_9allocatorIS2_EEE5frontEv, symObjAddr: 0x16110, symBinAddr: 0x100016DD0, symSize: 0x50 }
  - { offsetInCU: 0x1CB9A, offset: 0x1CB9A, size: 0x8, addend: 0x0, symName: __ZNSt3__15dequeIP7CommandNS_9allocatorIS2_EEE9pop_frontEv, symObjAddr: 0x16160, symBinAddr: 0x100016E20, symSize: 0xC0 }
  - { offsetInCU: 0x1CBEF, offset: 0x1CBEF, size: 0x8, addend: 0x0, symName: __ZNKSt3__15dequeIP7CommandNS_9allocatorIS2_EEE23__annotate_shrink_frontB8ue170006Emm, symObjAddr: 0x16220, symBinAddr: 0x100016EE0, symSize: 0x70 }
  - { offsetInCU: 0x1CC33, offset: 0x1CC33, size: 0x8, addend: 0x0, symName: __ZNSt3__15dequeIP7CommandNS_9allocatorIS2_EEE26__maybe_remove_front_spareB8ue170006Eb, symObjAddr: 0x16290, symBinAddr: 0x100016F50, symSize: 0xC0 }
  - { offsetInCU: 0x1CC68, offset: 0x1CC68, size: 0x8, addend: 0x0, symName: __ZNKSt3__15dequeIP7CommandNS_9allocatorIS2_EEE20__front_spare_blocksB8ue170006Ev, symObjAddr: 0x16350, symBinAddr: 0x100017010, symSize: 0x20 }
  - { offsetInCU: 0x1CC8E, offset: 0x1CC8E, size: 0x8, addend: 0x0, symName: __ZNKSt3__15dequeIP7CommandNS_9allocatorIS2_EEE13__front_spareB8ue170006Ev, symObjAddr: 0x16370, symBinAddr: 0x100017030, symSize: 0x20 }
  - { offsetInCU: 0x1CCB4, offset: 0x1CCB4, size: 0x8, addend: 0x0, symName: __ZNKSt3__16vectorI7ElementNS_9allocatorIS1_EEE5frontB8ue170006Ev, symObjAddr: 0x16390, symBinAddr: 0x100017050, symSize: 0x20 }
  - { offsetInCU: 0x1CCDA, offset: 0x1CCDA, size: 0x8, addend: 0x0, symName: __ZNSt3__16vectorI7ElementNS_9allocatorIS1_EEEC2B8ue170006Ev, symObjAddr: 0x163B0, symBinAddr: 0x100017070, symSize: 0x50 }
  - { offsetInCU: 0x1CD04, offset: 0x1CD04, size: 0x8, addend: 0x0, symName: __ZNSt3__117__compressed_pairIP7ElementNS_9allocatorIS1_EEEC1B8ue170006IDnNS_18__default_init_tagEEEOT_OT0_, symObjAddr: 0x16400, symBinAddr: 0x1000170C0, symSize: 0x30 }
  - { offsetInCU: 0x1CD5C, offset: 0x1CD5C, size: 0x8, addend: 0x0, symName: __ZNSt3__117__compressed_pairIP7ElementNS_9allocatorIS1_EEEC2B8ue170006IDnNS_18__default_init_tagEEEOT_OT0_, symObjAddr: 0x16430, symBinAddr: 0x1000170F0, symSize: 0x40 }
  - { offsetInCU: 0x1CDB4, offset: 0x1CDB4, size: 0x8, addend: 0x0, symName: __ZNSt3__122__compressed_pair_elemINS_9allocatorI7ElementEELi1ELb1EEC2B8ue170006ENS_18__default_init_tagE, symObjAddr: 0x16470, symBinAddr: 0x100017130, symSize: 0x20 }
  - { offsetInCU: 0x1CDE8, offset: 0x1CDE8, size: 0x8, addend: 0x0, symName: __ZNSt3__19allocatorI7ElementEC2B8ue170006Ev, symObjAddr: 0x16490, symBinAddr: 0x100017150, symSize: 0x20 }
  - { offsetInCU: 0x1CE12, offset: 0x1CE12, size: 0x8, addend: 0x0, symName: __ZNSt3__116__non_trivial_ifILb1ENS_9allocatorI7ElementEEEC2B8ue170006Ev, symObjAddr: 0x164B0, symBinAddr: 0x100017170, symSize: 0x10 }
  - { offsetInCU: 0x1CE3C, offset: 0x1CE3C, size: 0x8, addend: 0x0, symName: __ZNSt3__16vectorI7ElementNS_9allocatorIS1_EEE22__construct_one_at_endB8ue170006IJRKS1_EEEvDpOT_, symObjAddr: 0x164C0, symBinAddr: 0x100017180, symSize: 0x90 }
  - { offsetInCU: 0x1CE8B, offset: 0x1CE8B, size: 0x8, addend: 0x0, symName: __ZNSt3__16vectorI7ElementNS_9allocatorIS1_EEE21__push_back_slow_pathIRKS1_EEvOT_, symObjAddr: 0x16550, symBinAddr: 0x100017210, symSize: 0xD0 }
  - { offsetInCU: 0x1CEE9, offset: 0x1CEE9, size: 0x8, addend: 0x0, symName: __ZNSt3__116allocator_traitsINS_9allocatorI7ElementEEE9constructB8ue170006IS2_JRKS2_EvEEvRS3_PT_DpOT0_, symObjAddr: 0x16620, symBinAddr: 0x1000172E0, symSize: 0x30 }
  - { offsetInCU: 0x1CF40, offset: 0x1CF40, size: 0x8, addend: 0x0, symName: __ZNSt3__19allocatorI7ElementE9constructB8ue170006IS1_JRKS1_EEEvPT_DpOT0_, symObjAddr: 0x16650, symBinAddr: 0x100017310, symSize: 0x30 }
  - { offsetInCU: 0x1CF96, offset: 0x1CF96, size: 0x8, addend: 0x0, symName: __ZNSt3__16vectorI7ElementNS_9allocatorIS1_EEE8pop_backEv, symObjAddr: 0x166D0, symBinAddr: 0x100017390, symSize: 0x30 }
  - { offsetInCU: 0x1CFBE, offset: 0x1CFBE, size: 0x8, addend: 0x0, symName: __ZNSt3__111__wrap_iterIP7ElementEppB8ue170006Ev, symObjAddr: 0x16A00, symBinAddr: 0x1000176C0, symSize: 0x20 }
  - { offsetInCU: 0x1CFE4, offset: 0x1CFE4, size: 0x8, addend: 0x0, symName: __ZNSt3__111__wrap_iterIP7ElementEpLB8ue170006El, symObjAddr: 0x16A20, symBinAddr: 0x1000176E0, symSize: 0x20 }
  - { offsetInCU: 0x1D018, offset: 0x1D018, size: 0x8, addend: 0x0, symName: __ZNSt3__16vectorI7ElementNS_9allocatorIS1_EEE17__destruct_at_endB8ue170006EPS1_, symObjAddr: 0x16A40, symBinAddr: 0x100017700, symSize: 0x50 }
  - { offsetInCU: 0x1D05C, offset: 0x1D05C, size: 0x8, addend: 0x0, symName: __ZNKSt3__16vectorI7ElementNS_9allocatorIS1_EEE17__annotate_shrinkB8ue170006Em, symObjAddr: 0x16A90, symBinAddr: 0x100017750, symSize: 0xA0 }
  - { offsetInCU: 0x1D091, offset: 0x1D091, size: 0x8, addend: 0x0, symName: __ZNKSt3__16vectorI7ElementNS_9allocatorIS1_EEE6cbeginB8ue170006Ev, symObjAddr: 0x16B70, symBinAddr: 0x100017830, symSize: 0x30 }
  - { offsetInCU: 0x1D0B7, offset: 0x1D0B7, size: 0x8, addend: 0x0, symName: __ZNKSt3__111__wrap_iterIPK7ElementE4baseB8ue170006Ev, symObjAddr: 0x16BE0, symBinAddr: 0x1000178A0, symSize: 0x20 }
  - { offsetInCU: 0x1D0DD, offset: 0x1D0DD, size: 0x8, addend: 0x0, symName: __ZNKSt3__16vectorI7ElementNS_9allocatorIS1_EEE5beginB8ue170006Ev, symObjAddr: 0x16C00, symBinAddr: 0x1000178C0, symSize: 0x30 }
  - { offsetInCU: 0x1D105, offset: 0x1D105, size: 0x8, addend: 0x0, symName: __ZNKSt3__16vectorI7ElementNS_9allocatorIS1_EEE11__make_iterB8ue170006EPKS1_, symObjAddr: 0x16C30, symBinAddr: 0x1000178F0, symSize: 0x30 }
  - { offsetInCU: 0x1D13A, offset: 0x1D13A, size: 0x8, addend: 0x0, symName: __ZNSt3__111__wrap_iterIPK7ElementEC1B8ue170006ES3_, symObjAddr: 0x16C60, symBinAddr: 0x100017920, symSize: 0x30 }
  - { offsetInCU: 0x1D172, offset: 0x1D172, size: 0x8, addend: 0x0, symName: __ZNSt3__111__wrap_iterIPK7ElementEC2B8ue170006ES3_, symObjAddr: 0x16C90, symBinAddr: 0x100017950, symSize: 0x20 }
  - { offsetInCU: 0x1D1CD, offset: 0x1D1CD, size: 0x8, addend: 0x0, symName: __ZNKSt3__111__move_loopINS_17_ClassicAlgPolicyEEclB8ue170006IP7ElementS5_S5_EENS_4pairIT_T1_EES7_T0_S8_, symObjAddr: 0x16E30, symBinAddr: 0x100017AF0, symSize: 0x80 }
  - { offsetInCU: 0x1D238, offset: 0x1D238, size: 0x8, addend: 0x0, symName: __ZNSt3__18_IterOpsINS_17_ClassicAlgPolicyEE11__iter_moveB8ue170006IRP7ElementEENS_9enable_ifIXsr12is_referenceIDTdeclsr3stdE7declvalIRT_EEEEE5valueEDTclsr3stdE4movedeclsr3stdE7declvalIS9_EEEEE4typeEOS8_, symObjAddr: 0x16F70, symBinAddr: 0x100017C30, symSize: 0x20 }
  - { offsetInCU: 0x1D264, offset: 0x1D264, size: 0x8, addend: 0x0, symName: __ZNSt3__18_IterOpsINS_17_ClassicAlgPolicyEE25__validate_iter_referenceB8ue170006IRP7ElementEEvv, symObjAddr: 0x16F90, symBinAddr: 0x100017C50, symSize: 0x10 }
  - { offsetInCU: 0x1D282, offset: 0x1D282, size: 0x8, addend: 0x0, symName: __ZNSt3__118__unwrap_iter_implIP7ElementLb1EE8__unwrapB8ue170006ES2_, symObjAddr: 0x16FA0, symBinAddr: 0x100017C60, symSize: 0x20 }
  - { offsetInCU: 0x1D2AA, offset: 0x1D2AA, size: 0x8, addend: 0x0, symName: __ZNSt3__14pairIP7ElementS2_EC1B8ue170006IS2_S2_LPv0EEEOT_OT0_, symObjAddr: 0x16FC0, symBinAddr: 0x100017C80, symSize: 0x30 }
  - { offsetInCU: 0x1D308, offset: 0x1D308, size: 0x8, addend: 0x0, symName: __ZNSt3__14pairIP7ElementS2_EC2B8ue170006IS2_S2_LPv0EEEOT_OT0_, symObjAddr: 0x16FF0, symBinAddr: 0x100017CB0, symSize: 0x30 }
  - { offsetInCU: 0x1D366, offset: 0x1D366, size: 0x8, addend: 0x0, symName: __ZNSt3__118__unwrap_iter_implIP7ElementLb1EE8__rewrapB8ue170006ES2_S2_, symObjAddr: 0x17020, symBinAddr: 0x100017CE0, symSize: 0x60 }
  - { offsetInCU: 0x1D397, offset: 0x1D397, size: 0x8, addend: 0x0, symName: __ZNSt3__111__wrap_iterIPK7ElementEC2B8ue170006IPS1_EERKNS0_IT_EEPNS_9enable_ifIXsr14is_convertibleIS7_S3_EE5valueEvE4typeE, symObjAddr: 0x17080, symBinAddr: 0x100017D40, symSize: 0x40 }
  - { offsetInCU: 0x1D3E2, offset: 0x1D3E2, size: 0x8, addend: 0x0, symName: __ZNSt3__15dequeIP7CommandNS_9allocatorIS2_EEE9push_backEOS2_, symObjAddr: 0x170C0, symBinAddr: 0x100017D80, symSize: 0xA0 }
  - { offsetInCU: 0x1D428, offset: 0x1D428, size: 0x8, addend: 0x0, symName: __ZNSt3__15dequeIP7CommandNS_9allocatorIS2_EEE19__add_back_capacityEv, symObjAddr: 0x17160, symBinAddr: 0x100017E20, symSize: 0x3C0 }
  - { offsetInCU: 0x1D4E0, offset: 0x1D4E0, size: 0x8, addend: 0x0, symName: __ZNKSt3__15dequeIP7CommandNS_9allocatorIS2_EEE24__annotate_increase_backB8ue170006Em, symObjAddr: 0x17520, symBinAddr: 0x1000181E0, symSize: 0x70 }
  - { offsetInCU: 0x1D51A, offset: 0x1D51A, size: 0x8, addend: 0x0, symName: __ZNSt3__116allocator_traitsINS_9allocatorIP7CommandEEE9constructB8ue170006IS3_JS3_EvEEvRS4_PT_DpOT0_, symObjAddr: 0x17590, symBinAddr: 0x100018250, symSize: 0x30 }
  - { offsetInCU: 0x1D571, offset: 0x1D571, size: 0x8, addend: 0x0, symName: __ZNSt3__114__split_bufferIPP7CommandNS_9allocatorIS3_EEE9push_backB8ue170006ERKS3_, symObjAddr: 0x175C0, symBinAddr: 0x100018280, symSize: 0x290 }
  - { offsetInCU: 0x1D5EA, offset: 0x1D5EA, size: 0x8, addend: 0x0, symName: __ZNKSt3__114__split_bufferIPP7CommandNS_9allocatorIS3_EEE12__back_spareB8ue170006Ev, symObjAddr: 0x17850, symBinAddr: 0x100018510, symSize: 0x40 }
  - { offsetInCU: 0x1D610, offset: 0x1D610, size: 0x8, addend: 0x0, symName: __ZNSt3__114__split_bufferIPP7CommandNS_9allocatorIS3_EEE9push_backEOS3_, symObjAddr: 0x17890, symBinAddr: 0x100018550, symSize: 0x290 }
  - { offsetInCU: 0x1D689, offset: 0x1D689, size: 0x8, addend: 0x0, symName: __ZNSt3__116allocator_traitsINS_9allocatorIP7CommandEEE8allocateB8ue170006ERS4_m, symObjAddr: 0x17B20, symBinAddr: 0x1000187E0, symSize: 0x30 }
  - { offsetInCU: 0x1D6BC, offset: 0x1D6BC, size: 0x8, addend: 0x0, symName: __ZNSt3__114__split_bufferIPP7CommandNS_9allocatorIS3_EEE10push_frontEOS3_, symObjAddr: 0x17B50, symBinAddr: 0x100018810, symSize: 0x270 }
  - { offsetInCU: 0x1D735, offset: 0x1D735, size: 0x8, addend: 0x0, symName: __ZNSt3__114__split_bufferIPP7CommandRNS_9allocatorIS3_EEEC1EmmS6_, symObjAddr: 0x17DC0, symBinAddr: 0x100018A80, symSize: 0x40 }
  - { offsetInCU: 0x1D790, offset: 0x1D790, size: 0x8, addend: 0x0, symName: __ZNSt3__122__allocator_destructorINS_9allocatorIP7CommandEEEC1B8ue170006ERS4_m, symObjAddr: 0x17E00, symBinAddr: 0x100018AC0, symSize: 0x30 }
  - { offsetInCU: 0x1D853, offset: 0x1D853, size: 0x8, addend: 0x0, symName: __ZNSt3__110unique_ptrIPP7CommandNS_22__allocator_destructorINS_9allocatorIS2_EEEEEC1B8ue170006ILb1EvEES3_NS_16__dependent_typeINS_27__unique_ptr_deleter_sfinaeIS7_EEXT_EE20__good_rval_ref_typeE, symObjAddr: 0x17E30, symBinAddr: 0x100018AF0, symSize: 0x30 }
  - { offsetInCU: 0x1D8A4, offset: 0x1D8A4, size: 0x8, addend: 0x0, symName: __ZNSt3__114__split_bufferIPP7CommandRNS_9allocatorIS3_EEE9push_backEOS3_, symObjAddr: 0x17E60, symBinAddr: 0x100018B20, symSize: 0x290 }
  - { offsetInCU: 0x1D91D, offset: 0x1D91D, size: 0x8, addend: 0x0, symName: __ZNKSt3__110unique_ptrIPP7CommandNS_22__allocator_destructorINS_9allocatorIS2_EEEEE3getB8ue170006Ev, symObjAddr: 0x180F0, symBinAddr: 0x100018DB0, symSize: 0x20 }
  - { offsetInCU: 0x1D943, offset: 0x1D943, size: 0x8, addend: 0x0, symName: __ZNSt3__110unique_ptrIPP7CommandNS_22__allocator_destructorINS_9allocatorIS2_EEEEE7releaseB8ue170006Ev, symObjAddr: 0x18110, symBinAddr: 0x100018DD0, symSize: 0x40 }
  - { offsetInCU: 0x1D978, offset: 0x1D978, size: 0x8, addend: 0x0, symName: __ZNSt3__114__split_bufferIPP7CommandRNS_9allocatorIS3_EEE10push_frontERKS3_, symObjAddr: 0x18150, symBinAddr: 0x100018E10, symSize: 0x270 }
  - { offsetInCU: 0x1D9F1, offset: 0x1D9F1, size: 0x8, addend: 0x0, symName: __ZNSt3__114__split_bufferIPP7CommandNS_9allocatorIS3_EEE9__end_capB8ue170006Ev, symObjAddr: 0x18400, symBinAddr: 0x1000190C0, symSize: 0x20 }
  - { offsetInCU: 0x1DA17, offset: 0x1DA17, size: 0x8, addend: 0x0, symName: __ZNSt3__114__split_bufferIPP7CommandRNS_9allocatorIS3_EEE9__end_capB8ue170006Ev, symObjAddr: 0x18420, symBinAddr: 0x1000190E0, symSize: 0x20 }
  - { offsetInCU: 0x1DA3D, offset: 0x1DA3D, size: 0x8, addend: 0x0, symName: __ZNSt3__110unique_ptrIPP7CommandNS_22__allocator_destructorINS_9allocatorIS2_EEEEED1B8ue170006Ev, symObjAddr: 0x18440, symBinAddr: 0x100019100, symSize: 0x20 }
  - { offsetInCU: 0x1DA67, offset: 0x1DA67, size: 0x8, addend: 0x0, symName: __ZNSt3__114__split_bufferIPP7CommandRNS_9allocatorIS3_EEED1Ev, symObjAddr: 0x18460, symBinAddr: 0x100019120, symSize: 0x20 }
  - { offsetInCU: 0x1DA93, offset: 0x1DA93, size: 0x8, addend: 0x0, symName: __ZNSt3__114__split_bufferIPP7CommandRNS_9allocatorIS3_EEE18__construct_at_endINS_13move_iteratorIPS3_EEEENS_9enable_ifIXsr31__has_forward_iterator_categoryIT_EE5valueEvE4typeESD_SD_, symObjAddr: 0x184C0, symBinAddr: 0x100019180, symSize: 0x60 }
  - { offsetInCU: 0x1DAE0, offset: 0x1DAE0, size: 0x8, addend: 0x0, symName: __ZNSt3__113move_iteratorIPPP7CommandEC1B8ue170006ES4_, symObjAddr: 0x18520, symBinAddr: 0x1000191E0, symSize: 0x30 }
  - { offsetInCU: 0x1DB18, offset: 0x1DB18, size: 0x8, addend: 0x0, symName: __ZNSt3__116allocator_traitsINS_9allocatorIPP7CommandEEE9constructB8ue170006IS4_JRKS4_EvEEvRS5_PT_DpOT0_, symObjAddr: 0x18550, symBinAddr: 0x100019210, symSize: 0x30 }
  - { offsetInCU: 0x1DB92, offset: 0x1DB92, size: 0x8, addend: 0x0, symName: __ZNKSt3__114__move_trivialclB8ue170006IPP7CommandS4_Li0EEENS_4pairIPT_PT0_EES7_S7_S9_, symObjAddr: 0x18700, symBinAddr: 0x1000193C0, symSize: 0x40 }
  - { offsetInCU: 0x1DBFF, offset: 0x1DBFF, size: 0x8, addend: 0x0, symName: __ZNSt3__14pairIPPP7CommandS4_EC1B8ue170006IRS4_S4_LPv0EEEOT_OT0_, symObjAddr: 0x188F0, symBinAddr: 0x1000195B0, symSize: 0x30 }
  - { offsetInCU: 0x1DC5D, offset: 0x1DC5D, size: 0x8, addend: 0x0, symName: __ZNSt3__14pairIPPP7CommandS4_EC2B8ue170006IRS4_S4_LPv0EEEOT_OT0_, symObjAddr: 0x18920, symBinAddr: 0x1000195E0, symSize: 0x30 }
  - { offsetInCU: 0x1DCBB, offset: 0x1DCBB, size: 0x8, addend: 0x0, symName: __ZNSt3__118__unwrap_iter_implIPPP7CommandLb1EE8__unwrapB8ue170006ES4_, symObjAddr: 0x18950, symBinAddr: 0x100019610, symSize: 0x20 }
  - { offsetInCU: 0x1DCDE, offset: 0x1DCDE, size: 0x8, addend: 0x0, symName: __ZNSt3__14pairIPPP7CommandS4_EC1B8ue170006IS4_S4_LPv0EEEOT_OT0_, symObjAddr: 0x18970, symBinAddr: 0x100019630, symSize: 0x30 }
  - { offsetInCU: 0x1DD3C, offset: 0x1DD3C, size: 0x8, addend: 0x0, symName: __ZNSt3__14pairIPPP7CommandS4_EC2B8ue170006IS4_S4_LPv0EEEOT_OT0_, symObjAddr: 0x189A0, symBinAddr: 0x100019660, symSize: 0x30 }
  - { offsetInCU: 0x1DD9A, offset: 0x1DD9A, size: 0x8, addend: 0x0, symName: __ZNSt3__118__unwrap_iter_implIPPP7CommandLb1EE8__rewrapB8ue170006ES4_S4_, symObjAddr: 0x189D0, symBinAddr: 0x100019690, symSize: 0x50 }
  - { offsetInCU: 0x1DDCB, offset: 0x1DDCB, size: 0x8, addend: 0x0, symName: __ZNSt3__114__split_bufferIPP7CommandRNS_9allocatorIS3_EEE28__construct_at_end_with_sizeINS_13move_iteratorIPS3_EEEEvT_m, symObjAddr: 0x18A20, symBinAddr: 0x1000196E0, symSize: 0xE0 }
  - { offsetInCU: 0x1DE31, offset: 0x1DE31, size: 0x8, addend: 0x0, symName: __ZNSt3__114__split_bufferIPP7CommandRNS_9allocatorIS3_EEE21_ConstructTransactionC1B8ue170006EPPS3_m, symObjAddr: 0x18B40, symBinAddr: 0x100019800, symSize: 0x30 }
  - { offsetInCU: 0x1DE77, offset: 0x1DE77, size: 0x8, addend: 0x0, symName: __ZNSt3__116allocator_traitsINS_9allocatorIPP7CommandEEE9constructB8ue170006IS4_JS4_EvEEvRS5_PT_DpOT0_, symObjAddr: 0x18B70, symBinAddr: 0x100019830, symSize: 0x30 }
  - { offsetInCU: 0x1DECE, offset: 0x1DECE, size: 0x8, addend: 0x0, symName: __ZNSt3__114__split_bufferIPP7CommandRNS_9allocatorIS3_EEE7__allocB8ue170006Ev, symObjAddr: 0x18BA0, symBinAddr: 0x100019860, symSize: 0x20 }
  - { offsetInCU: 0x1DEF4, offset: 0x1DEF4, size: 0x8, addend: 0x0, symName: __ZNKSt3__113move_iteratorIPPP7CommandEdeB8ue170006Ev, symObjAddr: 0x18BC0, symBinAddr: 0x100019880, symSize: 0x20 }
  - { offsetInCU: 0x1DF1A, offset: 0x1DF1A, size: 0x8, addend: 0x0, symName: __ZNSt3__113move_iteratorIPPP7CommandEppB8ue170006Ev, symObjAddr: 0x18BE0, symBinAddr: 0x1000198A0, symSize: 0x20 }
  - { offsetInCU: 0x1DF40, offset: 0x1DF40, size: 0x8, addend: 0x0, symName: __ZNSt3__114__split_bufferIPP7CommandRNS_9allocatorIS3_EEE21_ConstructTransactionD1B8ue170006Ev, symObjAddr: 0x18C00, symBinAddr: 0x1000198C0, symSize: 0x20 }
  - { offsetInCU: 0x1DF6A, offset: 0x1DF6A, size: 0x8, addend: 0x0, symName: __ZNSt3__114__split_bufferIPP7CommandRNS_9allocatorIS3_EEE21_ConstructTransactionC2B8ue170006EPPS3_m, symObjAddr: 0x18C20, symBinAddr: 0x1000198E0, symSize: 0x40 }
  - { offsetInCU: 0x1DFB0, offset: 0x1DFB0, size: 0x8, addend: 0x0, symName: __ZNSt3__19allocatorIPP7CommandE9constructB8ue170006IS3_JS3_EEEvPT_DpOT0_, symObjAddr: 0x18C60, symBinAddr: 0x100019920, symSize: 0x20 }
  - { offsetInCU: 0x1E006, offset: 0x1E006, size: 0x8, addend: 0x0, symName: __ZNSt3__117__compressed_pairIPPP7CommandRNS_9allocatorIS3_EEE6secondB8ue170006Ev, symObjAddr: 0x18C80, symBinAddr: 0x100019940, symSize: 0x20 }
  - { offsetInCU: 0x1E02C, offset: 0x1E02C, size: 0x8, addend: 0x0, symName: __ZNSt3__122__compressed_pair_elemIRNS_9allocatorIPP7CommandEELi1ELb0EE5__getB8ue170006Ev, symObjAddr: 0x18CA0, symBinAddr: 0x100019960, symSize: 0x20 }
  - { offsetInCU: 0x1E052, offset: 0x1E052, size: 0x8, addend: 0x0, symName: __ZNSt3__114__split_bufferIPP7CommandRNS_9allocatorIS3_EEE21_ConstructTransactionD2B8ue170006Ev, symObjAddr: 0x18CC0, symBinAddr: 0x100019980, symSize: 0x20 }
  - { offsetInCU: 0x1E07C, offset: 0x1E07C, size: 0x8, addend: 0x0, symName: __ZNKSt3__113move_iteratorIPPP7CommandE4baseB8ue170006Ev, symObjAddr: 0x18D50, symBinAddr: 0x100019A10, symSize: 0x20 }
  - { offsetInCU: 0x1E0A2, offset: 0x1E0A2, size: 0x8, addend: 0x0, symName: __ZNSt3__113move_iteratorIPPP7CommandEC2B8ue170006ES4_, symObjAddr: 0x18D70, symBinAddr: 0x100019A30, symSize: 0x20 }
  - { offsetInCU: 0x1E0DA, offset: 0x1E0DA, size: 0x8, addend: 0x0, symName: __ZNSt3__19allocatorIPP7CommandE9constructB8ue170006IS3_JRKS3_EEEvPT_DpOT0_, symObjAddr: 0x18D90, symBinAddr: 0x100019A50, symSize: 0x20 }
  - { offsetInCU: 0x1E130, offset: 0x1E130, size: 0x8, addend: 0x0, symName: __ZNSt3__19allocatorIP7CommandE8allocateB8ue170006Em, symObjAddr: 0x18DB0, symBinAddr: 0x100019A70, symSize: 0x50 }
  - { offsetInCU: 0x1E16E, offset: 0x1E16E, size: 0x8, addend: 0x0, symName: __ZNSt3__116allocator_traitsINS_9allocatorIP7CommandEEE8max_sizeB8ue170006IS4_vEEmRKS4_, symObjAddr: 0x18E00, symBinAddr: 0x100019AC0, symSize: 0x20 }
  - { offsetInCU: 0x1E19C, offset: 0x1E19C, size: 0x8, addend: 0x0, symName: __ZNKSt3__19allocatorIP7CommandE8max_sizeB8ue170006Ev, symObjAddr: 0x18E20, symBinAddr: 0x100019AE0, symSize: 0x20 }
  - { offsetInCU: 0x1E1CC, offset: 0x1E1CC, size: 0x8, addend: 0x0, symName: __ZNKSt3__123__move_backward_trivialclB8ue170006IPP7CommandS4_Li0EEENS_4pairIPT_PT0_EES7_S7_S9_, symObjAddr: 0x18FB0, symBinAddr: 0x100019C70, symSize: 0x40 }
  - { offsetInCU: 0x1E234, offset: 0x1E234, size: 0x8, addend: 0x0, symName: __ZNSt3__14pairIPPP7CommandS4_EC1B8ue170006IRS4_S7_LPv0EEEOT_OT0_, symObjAddr: 0x19090, symBinAddr: 0x100019D50, symSize: 0x30 }
  - { offsetInCU: 0x1E292, offset: 0x1E292, size: 0x8, addend: 0x0, symName: __ZNSt3__14pairIPPP7CommandS4_EC2B8ue170006IRS4_S7_LPv0EEEOT_OT0_, symObjAddr: 0x190C0, symBinAddr: 0x100019D80, symSize: 0x30 }
  - { offsetInCU: 0x1E2F0, offset: 0x1E2F0, size: 0x8, addend: 0x0, symName: __ZNSt3__114__split_bufferIPP7CommandRNS_9allocatorIS3_EEEC2EmmS6_, symObjAddr: 0x190F0, symBinAddr: 0x100019DB0, symSize: 0xD0 }
  - { offsetInCU: 0x1E364, offset: 0x1E364, size: 0x8, addend: 0x0, symName: __ZNSt3__117__compressed_pairIPPP7CommandRNS_9allocatorIS3_EEEC1B8ue170006IDnS7_EEOT_OT0_, symObjAddr: 0x191C0, symBinAddr: 0x100019E80, symSize: 0x30 }
  - { offsetInCU: 0x1E3BC, offset: 0x1E3BC, size: 0x8, addend: 0x0, symName: __ZNSt3__117__compressed_pairIPPP7CommandRNS_9allocatorIS3_EEEC2B8ue170006IDnS7_EEOT_OT0_, symObjAddr: 0x19230, symBinAddr: 0x100019EF0, symSize: 0x40 }
  - { offsetInCU: 0x1E414, offset: 0x1E414, size: 0x8, addend: 0x0, symName: __ZNSt3__122__compressed_pair_elemIRNS_9allocatorIPP7CommandEELi1ELb0EEC2B8ue170006IS6_vEEOT_, symObjAddr: 0x19270, symBinAddr: 0x100019F30, symSize: 0x20 }
  - { offsetInCU: 0x1E456, offset: 0x1E456, size: 0x8, addend: 0x0, symName: __ZNSt3__19allocatorIPP7CommandE8allocateB8ue170006Em, symObjAddr: 0x19290, symBinAddr: 0x100019F50, symSize: 0x50 }
  - { offsetInCU: 0x1E494, offset: 0x1E494, size: 0x8, addend: 0x0, symName: __ZNSt3__116allocator_traitsINS_9allocatorIPP7CommandEEE8max_sizeB8ue170006IS5_vEEmRKS5_, symObjAddr: 0x192E0, symBinAddr: 0x100019FA0, symSize: 0x20 }
  - { offsetInCU: 0x1E4C2, offset: 0x1E4C2, size: 0x8, addend: 0x0, symName: __ZNKSt3__19allocatorIPP7CommandE8max_sizeB8ue170006Ev, symObjAddr: 0x19300, symBinAddr: 0x100019FC0, symSize: 0x20 }
  - { offsetInCU: 0x1E4E8, offset: 0x1E4E8, size: 0x8, addend: 0x0, symName: __ZNSt3__122__allocator_destructorINS_9allocatorIP7CommandEEEC2B8ue170006ERS4_m, symObjAddr: 0x19320, symBinAddr: 0x100019FE0, symSize: 0x30 }
  - { offsetInCU: 0x1E52E, offset: 0x1E52E, size: 0x8, addend: 0x0, symName: __ZNSt3__110unique_ptrIPP7CommandNS_22__allocator_destructorINS_9allocatorIS2_EEEEEC2B8ue170006ILb1EvEES3_NS_16__dependent_typeINS_27__unique_ptr_deleter_sfinaeIS7_EEXT_EE20__good_rval_ref_typeE, symObjAddr: 0x19350, symBinAddr: 0x10001A010, symSize: 0x40 }
  - { offsetInCU: 0x1E57F, offset: 0x1E57F, size: 0x8, addend: 0x0, symName: __ZNSt3__117__compressed_pairIPP7CommandNS_22__allocator_destructorINS_9allocatorIS2_EEEEEC1B8ue170006IRS3_S7_EEOT_OT0_, symObjAddr: 0x19390, symBinAddr: 0x10001A050, symSize: 0x30 }
  - { offsetInCU: 0x1E5D7, offset: 0x1E5D7, size: 0x8, addend: 0x0, symName: __ZNSt3__117__compressed_pairIPP7CommandNS_22__allocator_destructorINS_9allocatorIS2_EEEEEC2B8ue170006IRS3_S7_EEOT_OT0_, symObjAddr: 0x193C0, symBinAddr: 0x10001A080, symSize: 0x40 }
  - { offsetInCU: 0x1E62F, offset: 0x1E62F, size: 0x8, addend: 0x0, symName: __ZNSt3__122__compressed_pair_elemIPP7CommandLi0ELb0EEC2B8ue170006IRS3_vEEOT_, symObjAddr: 0x19400, symBinAddr: 0x10001A0C0, symSize: 0x20 }
  - { offsetInCU: 0x1E671, offset: 0x1E671, size: 0x8, addend: 0x0, symName: __ZNSt3__122__compressed_pair_elemINS_22__allocator_destructorINS_9allocatorIP7CommandEEEELi1ELb0EEC2B8ue170006IS6_vEEOT_, symObjAddr: 0x19420, symBinAddr: 0x10001A0E0, symSize: 0x30 }
  - { offsetInCU: 0x1E6B3, offset: 0x1E6B3, size: 0x8, addend: 0x0, symName: __ZNKSt3__117__compressed_pairIPP7CommandNS_22__allocator_destructorINS_9allocatorIS2_EEEEE5firstB8ue170006Ev, symObjAddr: 0x19450, symBinAddr: 0x10001A110, symSize: 0x20 }
  - { offsetInCU: 0x1E6D9, offset: 0x1E6D9, size: 0x8, addend: 0x0, symName: __ZNKSt3__122__compressed_pair_elemIPP7CommandLi0ELb0EE5__getB8ue170006Ev, symObjAddr: 0x19470, symBinAddr: 0x10001A130, symSize: 0x10 }
  - { offsetInCU: 0x1E6FF, offset: 0x1E6FF, size: 0x8, addend: 0x0, symName: __ZNSt3__117__compressed_pairIPP7CommandNS_22__allocator_destructorINS_9allocatorIS2_EEEEE5firstB8ue170006Ev, symObjAddr: 0x19480, symBinAddr: 0x10001A140, symSize: 0x20 }
  - { offsetInCU: 0x1E725, offset: 0x1E725, size: 0x8, addend: 0x0, symName: __ZNSt3__122__compressed_pair_elemIPP7CommandLi0ELb0EE5__getB8ue170006Ev, symObjAddr: 0x194A0, symBinAddr: 0x10001A160, symSize: 0x10 }
  - { offsetInCU: 0x1E74B, offset: 0x1E74B, size: 0x8, addend: 0x0, symName: __ZNSt3__117__compressed_pairIPPP7CommandNS_9allocatorIS3_EEE5firstB8ue170006Ev, symObjAddr: 0x194B0, symBinAddr: 0x10001A170, symSize: 0x20 }
  - { offsetInCU: 0x1E771, offset: 0x1E771, size: 0x8, addend: 0x0, symName: __ZNSt3__122__compressed_pair_elemIPPP7CommandLi0ELb0EE5__getB8ue170006Ev, symObjAddr: 0x194D0, symBinAddr: 0x10001A190, symSize: 0x10 }
  - { offsetInCU: 0x1E797, offset: 0x1E797, size: 0x8, addend: 0x0, symName: __ZNSt3__117__compressed_pairIPPP7CommandRNS_9allocatorIS3_EEE5firstB8ue170006Ev, symObjAddr: 0x194E0, symBinAddr: 0x10001A1A0, symSize: 0x20 }
  - { offsetInCU: 0x1E7BD, offset: 0x1E7BD, size: 0x8, addend: 0x0, symName: __ZNSt3__110unique_ptrIPP7CommandNS_22__allocator_destructorINS_9allocatorIS2_EEEEED2B8ue170006Ev, symObjAddr: 0x19500, symBinAddr: 0x10001A1C0, symSize: 0x20 }
  - { offsetInCU: 0x1E7E7, offset: 0x1E7E7, size: 0x8, addend: 0x0, symName: __ZNSt3__110unique_ptrIPP7CommandNS_22__allocator_destructorINS_9allocatorIS2_EEEEE5resetB8ue170006ES3_, symObjAddr: 0x19520, symBinAddr: 0x10001A1E0, symSize: 0x70 }
  - { offsetInCU: 0x1E82B, offset: 0x1E82B, size: 0x8, addend: 0x0, symName: __ZNSt3__117__compressed_pairIPP7CommandNS_22__allocator_destructorINS_9allocatorIS2_EEEEE6secondB8ue170006Ev, symObjAddr: 0x19590, symBinAddr: 0x10001A250, symSize: 0x20 }
  - { offsetInCU: 0x1E851, offset: 0x1E851, size: 0x8, addend: 0x0, symName: __ZNSt3__122__allocator_destructorINS_9allocatorIP7CommandEEEclB8ue170006EPS3_, symObjAddr: 0x195B0, symBinAddr: 0x10001A270, symSize: 0x30 }
  - { offsetInCU: 0x1E885, offset: 0x1E885, size: 0x8, addend: 0x0, symName: __ZNSt3__122__compressed_pair_elemINS_22__allocator_destructorINS_9allocatorIP7CommandEEEELi1ELb0EE5__getB8ue170006Ev, symObjAddr: 0x195E0, symBinAddr: 0x10001A2A0, symSize: 0x10 }
  - { offsetInCU: 0x1E8AB, offset: 0x1E8AB, size: 0x8, addend: 0x0, symName: __ZNSt3__114__split_bufferIPP7CommandRNS_9allocatorIS3_EEED2Ev, symObjAddr: 0x195F0, symBinAddr: 0x10001A2B0, symSize: 0x70 }
  - { offsetInCU: 0x1E8D7, offset: 0x1E8D7, size: 0x8, addend: 0x0, symName: __ZNSt3__114__split_bufferIPP7CommandRNS_9allocatorIS3_EEE5clearB8ue170006Ev, symObjAddr: 0x19660, symBinAddr: 0x10001A320, symSize: 0x20 }
  - { offsetInCU: 0x1E8FD, offset: 0x1E8FD, size: 0x8, addend: 0x0, symName: __ZNKSt3__114__split_bufferIPP7CommandRNS_9allocatorIS3_EEE8capacityB8ue170006Ev, symObjAddr: 0x19680, symBinAddr: 0x10001A340, symSize: 0x30 }
  - { offsetInCU: 0x1E923, offset: 0x1E923, size: 0x8, addend: 0x0, symName: __ZNSt3__114__split_bufferIPP7CommandRNS_9allocatorIS3_EEE17__destruct_at_endB8ue170006EPS3_, symObjAddr: 0x196B0, symBinAddr: 0x10001A370, symSize: 0x30 }
  - { offsetInCU: 0x1E957, offset: 0x1E957, size: 0x8, addend: 0x0, symName: __ZNSt3__114__split_bufferIPP7CommandRNS_9allocatorIS3_EEE17__destruct_at_endB8ue170006EPS3_NS_17integral_constantIbLb0EEE, symObjAddr: 0x196E0, symBinAddr: 0x10001A3A0, symSize: 0x80 }
  - { offsetInCU: 0x1E997, offset: 0x1E997, size: 0x8, addend: 0x0, symName: __ZNKSt3__114__split_bufferIPP7CommandRNS_9allocatorIS3_EEE9__end_capB8ue170006Ev, symObjAddr: 0x19760, symBinAddr: 0x10001A420, symSize: 0x20 }
  - { offsetInCU: 0x1E9BD, offset: 0x1E9BD, size: 0x8, addend: 0x0, symName: __ZNKSt3__117__compressed_pairIPPP7CommandRNS_9allocatorIS3_EEE5firstB8ue170006Ev, symObjAddr: 0x19780, symBinAddr: 0x10001A440, symSize: 0x20 }
  - { offsetInCU: 0x1E9E3, offset: 0x1E9E3, size: 0x8, addend: 0x0, symName: __ZNSt3__19allocatorIP7CommandE9constructB8ue170006IS2_JS2_EEEvPT_DpOT0_, symObjAddr: 0x197A0, symBinAddr: 0x10001A460, symSize: 0x20 }
  - { offsetInCU: 0x1EA39, offset: 0x1EA39, size: 0x8, addend: 0x0, symName: __ZNSt3__15dequeIP7CommandNS_9allocatorIS2_EEE9push_backERKS2_, symObjAddr: 0x197C0, symBinAddr: 0x10001A480, symSize: 0xA0 }
  - { offsetInCU: 0x1EA7F, offset: 0x1EA7F, size: 0x8, addend: 0x0, symName: __ZNSt3__116allocator_traitsINS_9allocatorIP7CommandEEE9constructB8ue170006IS3_JRKS3_EvEEvRS4_PT_DpOT0_, symObjAddr: 0x19860, symBinAddr: 0x10001A520, symSize: 0x30 }
  - { offsetInCU: 0x1EAD6, offset: 0x1EAD6, size: 0x8, addend: 0x0, symName: __ZNSt3__19allocatorIP7CommandE9constructB8ue170006IS2_JRKS2_EEEvPT_DpOT0_, symObjAddr: 0x19890, symBinAddr: 0x10001A550, symSize: 0x20 }
...
